ARM GAS  /cygdrive/c/DOCUME~1/mkwapisz/LOCALS~1/Temp/ccwCXJbO.s 			page 1


   1              		.code	16
   2              		.file	"pong.c"
   3              		.section	.debug_abbrev,"",%progbits
   4              	.Ldebug_abbrev0:
   5              		.section	.debug_info,"",%progbits
   6              	.Ldebug_info0:
   7              		.section	.debug_line,"",%progbits
   8              	.Ldebug_line0:
   9 0000 79030000 		.text
   9      02005D00 
   9      00000201 
   9      FB0E0D00 
   9      01010101 
  10              	.Ltext0:
  11              		.align	2
  12              		.code 16
  13              		.thumb_func
  14              		.type	convertToDigits, %function
  15              	convertToDigits:
  16              	.LFB13:
  17              		.file 1 "pong.c"
   1:pong.c        **** /******************************************************************************
   2:pong.c        ****  *
   3:pong.c        ****  * Copyright:
   4:pong.c        ****  *    (C) 2006 Embedded Artists AB
   5:pong.c        ****  *
   6:pong.c        ****  * Description:
   7:pong.c        ****  *    Implements the pong game.
   8:pong.c        ****  *
   9:pong.c        ****  *****************************************************************************/
  10:pong.c        **** 
  11:pong.c        **** #include "configAppl.h"
  12:pong.c        **** #ifdef INCLUDE_PONG_GAME
  13:pong.c        **** 
  14:pong.c        **** /******************************************************************************
  15:pong.c        ****  * Includes
  16:pong.c        ****  *****************************************************************************/
  17:pong.c        **** #include "../pre_emptive_os/api/osapi.h"
  18:pong.c        **** #include "../pre_emptive_os/api/general.h"
  19:pong.c        **** #include "lcd.h"
  20:pong.c        **** #include "key.h"
  21:pong.c        **** #include "bt.h"
  22:pong.c        **** #include "math.h"
  23:pong.c        **** #include "select.h"
  24:pong.c        **** #include "stdio.h"
  25:pong.c        **** #include <printf_P.h>
  26:pong.c        **** #include <string.h>
  27:pong.c        **** #include <stdlib.h>
  28:pong.c        **** #include "uart.h"
  29:pong.c        **** 
  30:pong.c        **** 
  31:pong.c        **** /******************************************************************************
  32:pong.c        ****  * Typedefs and defines
  33:pong.c        ****  *****************************************************************************/
  34:pong.c        **** #define COLOR_BLACK 0x00
  35:pong.c        **** #define COLOR_WHITE 0xff
  36:pong.c        **** #define COLOR_RED   0xe0
ARM GAS  /cygdrive/c/DOCUME~1/mkwapisz/LOCALS~1/Temp/ccwCXJbO.s 			page 2


  37:pong.c        **** #define COLOR_GREEN 0x1c
  38:pong.c        **** #define COLOR_BLUE  0x03
  39:pong.c        **** 
  40:pong.c        **** #define BACKGROUND_COLOR    COLOR_BLACK
  41:pong.c        **** #define DEFAULT_TEXT_COLOR  0xe0
  42:pong.c        **** 
  43:pong.c        **** #define SCREEN_HEIGHT 130
  44:pong.c        **** #define SCREEN_WIDTH  130
  45:pong.c        **** 
  46:pong.c        **** #define SCORE_HEIGHT  15
  47:pong.c        **** 
  48:pong.c        **** #define BOARD_WIDTH    SCREEN_WIDTH
  49:pong.c        **** #define BOARD_HEIGHT   (SCREEN_HEIGHT-SCORE_HEIGHT)
  50:pong.c        **** #define BOARD_TOP_Y    SCORE_HEIGHT+1
  51:pong.c        **** #define BOARD_BOTTOM_Y SCREEN_HEIGHT-1
  52:pong.c        **** 
  53:pong.c        **** #define BALL_MOVE_TIME 100
  54:pong.c        **** #define PLAYER_MOVE_TIME 30
  55:pong.c        **** #define STATUS_UPDATE_TIME (PLAYER_MOVE_TIME/2)
  56:pong.c        **** 
  57:pong.c        **** #define SPEED_INCR 1.3
  58:pong.c        **** #define SPEED_DECR 0.8
  59:pong.c        **** 
  60:pong.c        **** #define WIN_SCORE 3
  61:pong.c        **** 
  62:pong.c        **** #define PLAYER_WIDTH 3
  63:pong.c        **** #define PLAYER_SIZE  16
  64:pong.c        **** #define PLAYER_STEP  1
  65:pong.c        **** 
  66:pong.c        **** #define PLAYER_CLIENT 0
  67:pong.c        **** #define PLAYER_HOST   1
  68:pong.c        **** 
  69:pong.c        **** typedef struct _PongPlayer
  70:pong.c        **** {
  71:pong.c        ****   tU8 xPos;
  72:pong.c        ****   tU8 yPos;
  73:pong.c        ****   tU8 size;
  74:pong.c        ****   tU8 score;
  75:pong.c        ****   tU8 color;
  76:pong.c        ****   tU8 type;
  77:pong.c        ****   tU32 lastMove;
  78:pong.c        ****   tU8 key;
  79:pong.c        **** } tPongPlayer;
  80:pong.c        **** 
  81:pong.c        **** typedef struct _PongBall
  82:pong.c        **** {
  83:pong.c        ****   double xPos;
  84:pong.c        ****   double yPos;
  85:pong.c        ****   tU8 size;
  86:pong.c        ****   tU8 color;
  87:pong.c        ****   double xSpeed;
  88:pong.c        ****   double ySpeed;
  89:pong.c        ****   double sXPos;
  90:pong.c        ****   double sYPos;
  91:pong.c        **** } tPongBall;
  92:pong.c        **** 
  93:pong.c        **** #define GAME_TYPE_SINGLE 0
ARM GAS  /cygdrive/c/DOCUME~1/mkwapisz/LOCALS~1/Temp/ccwCXJbO.s 			page 3


  94:pong.c        **** #define GAME_TYPE_DUAL_C 1
  95:pong.c        **** #define GAME_TYPE_DUAL_S 2
  96:pong.c        **** 
  97:pong.c        **** #define MAX_BT_UNITS 5
  98:pong.c        **** 
  99:pong.c        **** typedef struct
 100:pong.c        **** {
 101:pong.c        ****   tU8 active;
 102:pong.c        ****   tU8 btAddress[13];
 103:pong.c        ****   tU8 btName[17];
 104:pong.c        **** } tBtRecord;
 105:pong.c        **** 
 106:pong.c        **** #define M_PI		3.14159265358979323846
 107:pong.c        **** 
 108:pong.c        **** /******************************************************************************
 109:pong.c        ****  * Local function prototypes
 110:pong.c        ****  *****************************************************************************/
 111:pong.c        **** static void activateServer(void);
 112:pong.c        **** static tBool checkIfClinetConnected(tU8 *pBtAddr);
 113:pong.c        **** static tBool searchServers(tU8 *pBtAddr);
 114:pong.c        **** static tBool connectToServer(tU8 *pBtAddr);
 115:pong.c        **** static tBool handleComm(void);
 116:pong.c        **** static tBool btSendAndRecvStatus(tU8 key, tBool force);
 117:pong.c        **** 
 118:pong.c        **** 
 119:pong.c        **** /******************************************************************************
 120:pong.c        ****  * Local (file global) variables
 121:pong.c        ****  *****************************************************************************/
 122:pong.c        **** static tBtRecord foundBtUnits[MAX_BT_UNITS];
 123:pong.c        **** 
 124:pong.c        **** static tU8 gameType;
 125:pong.c        **** 
 126:pong.c        **** static tPongPlayer player1 = 
 127:pong.c        **** {
 128:pong.c        ****   0,
 129:pong.c        ****   BOARD_TOP_Y+BOARD_HEIGHT/2-PLAYER_SIZE/2, 
 130:pong.c        ****   PLAYER_SIZE, 
 131:pong.c        ****   0, 
 132:pong.c        ****   COLOR_RED,   
 133:pong.c        ****   PLAYER_CLIENT
 134:pong.c        **** };
 135:pong.c        **** 
 136:pong.c        **** static tPongPlayer player2 = 
 137:pong.c        **** {
 138:pong.c        ****   BOARD_WIDTH-1-PLAYER_WIDTH, 
 139:pong.c        ****   BOARD_TOP_Y+BOARD_HEIGHT/2-PLAYER_SIZE/2, 
 140:pong.c        ****   PLAYER_SIZE, 
 141:pong.c        ****   0, 
 142:pong.c        ****   COLOR_GREEN, 
 143:pong.c        ****   PLAYER_HOST
 144:pong.c        **** };
 145:pong.c        **** 
 146:pong.c        **** static tPongBall ball = {0.0, 0.0, 2, COLOR_WHITE, 2.6, 1.0};
 147:pong.c        **** 
 148:pong.c        **** static tPongPlayer* pActivePlayer  = &player1;
 149:pong.c        **** 
 150:pong.c        **** static tPongPlayer* pServingPlayer = &player1;
ARM GAS  /cygdrive/c/DOCUME~1/mkwapisz/LOCALS~1/Temp/ccwCXJbO.s 			page 4


 151:pong.c        **** static tBool serving = TRUE;
 152:pong.c        **** 
 153:pong.c        **** static tU32 lastMove = 0;
 154:pong.c        **** static tU32 lastStatus = 0;
 155:pong.c        **** 
 156:pong.c        **** static tU8 remoteClientKey = KEY_NOTHING;
 157:pong.c        **** 
 158:pong.c        **** 
 159:pong.c        **** /******************************************************************************
 160:pong.c        ****  * External variables
 161:pong.c        ****  *****************************************************************************/
 162:pong.c        **** extern volatile tU32 ms;
 163:pong.c        **** 
 164:pong.c        **** 
 165:pong.c        **** /******************************************************************************
 166:pong.c        ****  * Implementation of local functions
 167:pong.c        ****  *****************************************************************************/
 168:pong.c        **** 
 169:pong.c        **** /*****************************************************************************
 170:pong.c        ****  *
 171:pong.c        ****  * Description:
 172:pong.c        ****  *    Draw current paddle position of specified player
 173:pong.c        ****  *
 174:pong.c        ****  ****************************************************************************/
 175:pong.c        **** static void 
 176:pong.c        **** paintPlayer(tPongPlayer* pPlayer) 
 177:pong.c        **** {
 178:pong.c        ****   lcdRect(pPlayer->xPos, pPlayer->yPos, PLAYER_WIDTH, pPlayer->size, pPlayer->color);
 179:pong.c        **** }
 180:pong.c        **** 
 181:pong.c        **** 
 182:pong.c        **** /*****************************************************************************
 183:pong.c        ****  *
 184:pong.c        ****  * Description:
 185:pong.c        ****  *    Draw the current score setting
 186:pong.c        ****  *
 187:pong.c        ****  ****************************************************************************/
 188:pong.c        **** static void 
 189:pong.c        **** paintScore(void)
 190:pong.c        **** {
 191:pong.c        ****   tU8 scoreStr[4];
 192:pong.c        **** 
 193:pong.c        **** 
 194:pong.c        ****   // left player
 195:pong.c        ****   scoreStr[0] = player1.score/100     + '0';
 196:pong.c        ****   scoreStr[1] = (player1.score/10)%10 + '0';
 197:pong.c        ****   scoreStr[2] = player1.score%10      + '0';
 198:pong.c        ****   scoreStr[3] = '\0';  
 199:pong.c        **** 
 200:pong.c        ****   lcdColor(BACKGROUND_COLOR, player1.color); 
 201:pong.c        ****   lcdGotoxy(1,0);
 202:pong.c        ****   lcdPuts(scoreStr);
 203:pong.c        **** 
 204:pong.c        ****   // name of the game
 205:pong.c        ****   lcdColor(BACKGROUND_COLOR, COLOR_BLUE); 
 206:pong.c        ****   lcdGotoxy(46, 0);
 207:pong.c        ****   lcdPuts("Pong");
ARM GAS  /cygdrive/c/DOCUME~1/mkwapisz/LOCALS~1/Temp/ccwCXJbO.s 			page 5


 208:pong.c        **** 
 209:pong.c        **** 
 210:pong.c        ****   // right player
 211:pong.c        ****   scoreStr[0] = player2.score/100     + '0';
 212:pong.c        ****   scoreStr[1] = (player2.score/10)%10 + '0';
 213:pong.c        ****   scoreStr[2] = player2.score%10      + '0';
 214:pong.c        ****   scoreStr[3] = '\0';  
 215:pong.c        **** 
 216:pong.c        ****   lcdColor(BACKGROUND_COLOR, player2.color); 
 217:pong.c        ****   lcdGotoxy(102,0);
 218:pong.c        ****   lcdPuts(scoreStr);
 219:pong.c        **** }
 220:pong.c        **** 
 221:pong.c        **** 
 222:pong.c        **** /*****************************************************************************
 223:pong.c        ****  *
 224:pong.c        ****  * Description:
 225:pong.c        ****  *    Draw the entire game board including player paddles
 226:pong.c        ****  *
 227:pong.c        ****  ****************************************************************************/
 228:pong.c        **** static void 
 229:pong.c        **** paintGame(void)
 230:pong.c        **** {
 231:pong.c        ****   //clear screen
 232:pong.c        ****   lcdColor(BACKGROUND_COLOR, DEFAULT_TEXT_COLOR);
 233:pong.c        ****   lcdClrscr();
 234:pong.c        **** 
 235:pong.c        ****   paintScore();
 236:pong.c        **** 
 237:pong.c        ****   lcdRect(0, SCORE_HEIGHT, BOARD_WIDTH, 1, 0xff);
 238:pong.c        **** 
 239:pong.c        ****   // paint players
 240:pong.c        ****   paintPlayer(&player1);
 241:pong.c        ****   paintPlayer(&player2);
 242:pong.c        **** }
 243:pong.c        **** 
 244:pong.c        **** 
 245:pong.c        **** /*****************************************************************************
 246:pong.c        ****  *
 247:pong.c        ****  * Description:
 248:pong.c        ****  *    
 249:pong.c        ****  *
 250:pong.c        ****  ****************************************************************************/
 251:pong.c        **** static void
 252:pong.c        **** startNewServ(tPongPlayer* pPlayer)
 253:pong.c        **** {
 254:pong.c        ****   pServingPlayer = pPlayer;
 255:pong.c        **** 
 256:pong.c        ****   if (pPlayer == &player1)
 257:pong.c        ****     ball.xSpeed = 2.6;
 258:pong.c        ****   else
 259:pong.c        ****     ball.xSpeed = -2.6;
 260:pong.c        **** 
 261:pong.c        ****   ball.ySpeed = 1;
 262:pong.c        **** 
 263:pong.c        ****   paintScore();
 264:pong.c        **** 
ARM GAS  /cygdrive/c/DOCUME~1/mkwapisz/LOCALS~1/Temp/ccwCXJbO.s 			page 6


 265:pong.c        ****   serving = TRUE;
 266:pong.c        **** 
 267:pong.c        ****   // temp
 268:pong.c        ****   pActivePlayer = pPlayer;    
 269:pong.c        **** }
 270:pong.c        **** 
 271:pong.c        **** 
 272:pong.c        **** /*****************************************************************************
 273:pong.c        ****  *
 274:pong.c        ****  * Description:
 275:pong.c        ****  *    
 276:pong.c        ****  *
 277:pong.c        ****  ****************************************************************************/
 278:pong.c        **** static void
 279:pong.c        **** moveBall(tU8 key)
 280:pong.c        **** {
 281:pong.c        ****   tPongPlayer* pDefending = NULL;
 282:pong.c        ****   tBool riskForHit = FALSE;
 283:pong.c        ****   tS8 dir = 1;
 284:pong.c        **** 
 285:pong.c        ****   if (serving &&
 286:pong.c        ****       (gameType == GAME_TYPE_SINGLE || gameType == GAME_TYPE_DUAL_S))
 287:pong.c        ****   {
 288:pong.c        ****     tU8 midPos = pServingPlayer->yPos + pServingPlayer->size/2 - ball.size/2;
 289:pong.c        **** 
 290:pong.c        ****     ball.xPos = pServingPlayer->xPos;
 291:pong.c        ****     if (pServingPlayer == &player1)
 292:pong.c        ****       ball.xPos+=PLAYER_WIDTH;
 293:pong.c        ****     else
 294:pong.c        ****       ball.xPos-=ball.size;
 295:pong.c        **** 
 296:pong.c        ****     if (ball.yPos != midPos)
 297:pong.c        ****     {
 298:pong.c        ****       // erase last position
 299:pong.c        ****       lcdRect(ball.xPos, ball.yPos, ball.size, ball.size, BACKGROUND_COLOR);
 300:pong.c        **** 
 301:pong.c        ****       ball.yPos = midPos;
 302:pong.c        **** 
 303:pong.c        ****       // paint ball
 304:pong.c        ****       lcdRect(ball.xPos, ball.yPos, ball.size, ball.size, ball.color);
 305:pong.c        ****     }
 306:pong.c        **** 
 307:pong.c        ****     if (/*key*/pServingPlayer->key == KEY_CENTER)
 308:pong.c        ****     {
 309:pong.c        ****       serving = FALSE;
 310:pong.c        ****     }
 311:pong.c        **** 
 312:pong.c        ****     return;
 313:pong.c        ****   }
 314:pong.c        **** 
 315:pong.c        ****   if (lastMove + BALL_MOVE_TIME > ms)
 316:pong.c        ****     return;
 317:pong.c        **** 
 318:pong.c        ****   // erase last position
 319:pong.c        ****   lcdRect((tU8)floor(ball.xPos), (tU8)floor(ball.yPos), ball.size, ball.size, BACKGROUND_COLOR);
 320:pong.c        **** //  lcdRect((tU8)round(ball.xPos), (tU8)round(ball.yPos), ball.size, ball.size, BACKGROUND_COLOR);
 321:pong.c        **** 
ARM GAS  /cygdrive/c/DOCUME~1/mkwapisz/LOCALS~1/Temp/ccwCXJbO.s 			page 7


 322:pong.c        ****   if (gameType == GAME_TYPE_SINGLE 
 323:pong.c        ****       || gameType == GAME_TYPE_DUAL_S)
 324:pong.c        ****   {
 325:pong.c        ****     // check if there is a risk hitting one of the pads
 326:pong.c        ****     if (ball.xSpeed > 0)
 327:pong.c        ****     {
 328:pong.c        ****       dir = -1;
 329:pong.c        ****       pDefending = &player2;
 330:pong.c        ****       riskForHit = (ball.xPos+ball.xSpeed+ball.size >= player2.xPos);
 331:pong.c        ****     }
 332:pong.c        ****     else
 333:pong.c        ****     {
 334:pong.c        ****       dir = 1;
 335:pong.c        ****       pDefending = &player1;
 336:pong.c        ****       riskForHit = (ball.xPos+ball.xSpeed < player1.xPos+PLAYER_WIDTH);
 337:pong.c        ****     }
 338:pong.c        **** 
 339:pong.c        ****     // check collision with wall
 340:pong.c        ****     if (ball.yPos+ball.ySpeed < BOARD_TOP_Y 
 341:pong.c        ****         || ball.yPos+ball.size+ball.ySpeed > BOARD_BOTTOM_Y)
 342:pong.c        ****     {
 343:pong.c        ****       ball.ySpeed = -ball.ySpeed;
 344:pong.c        ****     }
 345:pong.c        **** 
 346:pong.c        **** 
 347:pong.c        ****     // see if the pad is actually hit
 348:pong.c        ****     if (riskForHit)
 349:pong.c        ****     {
 350:pong.c        ****       double percIntoPad = 0;
 351:pong.c        ****       double angle = 0;
 352:pong.c        ****       double absSpeed = 0;
 353:pong.c        **** 
 354:pong.c        ****       tU8 yPos = (ball.ySpeed/ball.xSpeed)
 355:pong.c        ****                  * (pDefending->xPos - ball.xPos) + ball.yPos;
 356:pong.c        **** 
 357:pong.c        ****       if (yPos+ball.size >= pDefending->yPos && yPos <= pDefending->yPos+pDefending->size)
 358:pong.c        ****       {
 359:pong.c        ****         // calculate new angle
 360:pong.c        ****         percIntoPad = (ball.yPos+(ball.size/2)-pDefending->yPos)
 361:pong.c        ****                       / pDefending->size;
 362:pong.c        **** 
 363:pong.c        ****         angle = (-5*M_PI/12) + (10*percIntoPad*M_PI/12);
 364:pong.c        ****         absSpeed = sqrt(ball.xSpeed*ball.xSpeed+ball.ySpeed*ball.ySpeed);
 365:pong.c        ****         ball.xSpeed = dir*absSpeed*cos(angle);
 366:pong.c        ****         ball.ySpeed = absSpeed*sin(angle);
 367:pong.c        **** 
 368:pong.c        ****         // increase speed
 369:pong.c        ****         if (pDefending->key == KEY_CENTER)
 370:pong.c        ****         {
 371:pong.c        ****           ball.xSpeed *= SPEED_INCR;
 372:pong.c        ****           ball.ySpeed *= SPEED_INCR;
 373:pong.c        ****         }
 374:pong.c        ****         // decrease speed
 375:pong.c        ****         else
 376:pong.c        ****         {
 377:pong.c        ****           if (ball.xSpeed >= 2.0)
 378:pong.c        ****             ball.xSpeed *= SPEED_DECR;
ARM GAS  /cygdrive/c/DOCUME~1/mkwapisz/LOCALS~1/Temp/ccwCXJbO.s 			page 8


 379:pong.c        ****           if (ball.ySpeed >= 2.0)
 380:pong.c        ****             ball.ySpeed *= SPEED_DECR;
 381:pong.c        ****         }
 382:pong.c        ****       }
 383:pong.c        ****     }
 384:pong.c        **** 
 385:pong.c        ****     ball.xPos += ball.xSpeed;
 386:pong.c        ****     ball.yPos += ball.ySpeed;
 387:pong.c        **** 
 388:pong.c        ****     // check if ball is outside board
 389:pong.c        ****     if (ball.xPos <= 0)
 390:pong.c        ****     {
 391:pong.c        ****       player2.score++;
 392:pong.c        ****       startNewServ(&player2);          
 393:pong.c        ****     }
 394:pong.c        ****     else if (ball.xPos >= BOARD_WIDTH-1)
 395:pong.c        ****     {
 396:pong.c        ****       player1.score++;
 397:pong.c        ****       startNewServ(&player1);          
 398:pong.c        ****     }
 399:pong.c        ****     else
 400:pong.c        ****     {
 401:pong.c        ****       // paint ball
 402:pong.c        **** //      lcdRect(round(ball.xPos), round(ball.yPos), ball.size, ball.size, ball.color);
 403:pong.c        ****       lcdRect(floor(ball.xPos), floor(ball.yPos), ball.size, ball.size, ball.color);
 404:pong.c        **** 
 405:pong.c        ****     }
 406:pong.c        ****   }
 407:pong.c        **** 
 408:pong.c        ****   else
 409:pong.c        ****   {
 410:pong.c        ****     // x and y position have been retreived from server
 411:pong.c        ****     ball.xPos = ball.sXPos;
 412:pong.c        ****     ball.yPos = ball.sYPos;
 413:pong.c        ****     
 414:pong.c        ****     lcdRect(floor(ball.xPos), floor(ball.yPos), ball.size, ball.size, ball.color);
 415:pong.c        **** //    lcdRect(round(ball.xPos), round(ball.yPos), ball.size, ball.size, ball.color);
 416:pong.c        ****   }
 417:pong.c        **** 
 418:pong.c        ****   lastMove = ms;
 419:pong.c        **** }
 420:pong.c        **** 
 421:pong.c        **** 
 422:pong.c        **** /*****************************************************************************
 423:pong.c        ****  *
 424:pong.c        ****  * Description:
 425:pong.c        ****  *    
 426:pong.c        ****  *
 427:pong.c        ****  ****************************************************************************/
 428:pong.c        **** static void
 429:pong.c        **** movePlayer(tPongPlayer* pPlayer, tU8 key)
 430:pong.c        **** {
 431:pong.c        ****   if (key == KEY_NOTHING && (gameType != GAME_TYPE_DUAL_C))
 432:pong.c        ****     return;
 433:pong.c        **** 
 434:pong.c        ****   if (pPlayer->lastMove + PLAYER_MOVE_TIME > ms)
 435:pong.c        ****     return;
ARM GAS  /cygdrive/c/DOCUME~1/mkwapisz/LOCALS~1/Temp/ccwCXJbO.s 			page 9


 436:pong.c        **** 
 437:pong.c        ****   pPlayer->lastMove = ms;
 438:pong.c        **** 
 439:pong.c        ****   if (gameType == GAME_TYPE_SINGLE || gameType == GAME_TYPE_DUAL_S)
 440:pong.c        ****   {
 441:pong.c        ****     switch (key)
 442:pong.c        ****     {
 443:pong.c        ****     case KEY_UP:
 444:pong.c        ****       if (pPlayer->yPos-PLAYER_STEP <= BOARD_TOP_Y)
 445:pong.c        ****         return;
 446:pong.c        **** 
 447:pong.c        ****       pPlayer->yPos -= PLAYER_STEP;
 448:pong.c        ****       break;
 449:pong.c        **** 
 450:pong.c        ****     case KEY_RIGHT:
 451:pong.c        ****       pActivePlayer = &player2;
 452:pong.c        ****       return;
 453:pong.c        **** 
 454:pong.c        ****     case KEY_DOWN:
 455:pong.c        ****       if (pPlayer->yPos+PLAYER_STEP+pPlayer->size > BOARD_BOTTOM_Y)
 456:pong.c        ****         return;
 457:pong.c        **** 
 458:pong.c        ****       pPlayer->yPos += PLAYER_STEP;
 459:pong.c        ****       break;
 460:pong.c        **** 
 461:pong.c        ****     case KEY_LEFT:
 462:pong.c        ****       pActivePlayer = &player1;
 463:pong.c        ****       return;
 464:pong.c        ****     }
 465:pong.c        ****   }
 466:pong.c        **** 
 467:pong.c        ****   if (pPlayer->yPos > BOARD_TOP_Y)
 468:pong.c        ****   {
 469:pong.c        ****     lcdRect(pPlayer->xPos, BOARD_TOP_Y, PLAYER_WIDTH, 
 470:pong.c        ****             pPlayer->yPos-BOARD_TOP_Y, BACKGROUND_COLOR);
 471:pong.c        ****   }
 472:pong.c        **** 
 473:pong.c        ****   paintPlayer(pPlayer);
 474:pong.c        **** 
 475:pong.c        ****   if (pPlayer->yPos+pPlayer->size < BOARD_BOTTOM_Y)
 476:pong.c        ****   {
 477:pong.c        ****     lcdRect(pPlayer->xPos, pPlayer->yPos+pPlayer->size,PLAYER_WIDTH, 
 478:pong.c        ****             BOARD_BOTTOM_Y, BACKGROUND_COLOR);
 479:pong.c        ****   }
 480:pong.c        **** 
 481:pong.c        ****   return;
 482:pong.c        **** }
 483:pong.c        **** 
 484:pong.c        **** 
 485:pong.c        **** /*****************************************************************************
 486:pong.c        ****  *
 487:pong.c        ****  * Description:
 488:pong.c        ****  *    Display string one character at a time
 489:pong.c        ****  *
 490:pong.c        ****  ****************************************************************************/
 491:pong.c        **** static void
 492:pong.c        **** displayMessage(tU8 *pMessage, tU8 speed)
ARM GAS  /cygdrive/c/DOCUME~1/mkwapisz/LOCALS~1/Temp/ccwCXJbO.s 			page 10


 493:pong.c        **** {
 494:pong.c        ****   while (*pMessage != '\0')
 495:pong.c        ****   {
 496:pong.c        ****     lcdPutchar(*pMessage++);
 497:pong.c        ****     osSleep(speed);
 498:pong.c        ****   }
 499:pong.c        **** }
 500:pong.c        **** 
 501:pong.c        **** 
 502:pong.c        **** /******************************************************************************
 503:pong.c        ****  * Implementation of public functions
 504:pong.c        ****  *****************************************************************************/
 505:pong.c        **** 
 506:pong.c        **** /*****************************************************************************
 507:pong.c        ****  *
 508:pong.c        ****  * Description:
 509:pong.c        ****  *    Implement Pong game
 510:pong.c        ****  *
 511:pong.c        ****  ****************************************************************************/
 512:pong.c        **** void
 513:pong.c        **** playPong(void)
 514:pong.c        **** {
 515:pong.c        ****   tBool gameOver = FALSE;
 516:pong.c        ****   tBool done = FALSE;
 517:pong.c        ****   tBool connected;
 518:pong.c        ****   tMenu menu;
 519:pong.c        ****   tU8   btAddress[13];
 520:pong.c        **** 
 521:pong.c        ****   //block BT process to communicate with BGB203
 522:pong.c        ****   blockBtProc();
 523:pong.c        **** 
 524:pong.c        ****   player1.score = 0;
 525:pong.c        ****   player2.score = 0;
 526:pong.c        ****   paintGame();
 527:pong.c        **** 
 528:pong.c        ****   //ask player which type of game (single/dual over Bluetooth)
 529:pong.c        ****   menu.xPos = 10;
 530:pong.c        ****   menu.yPos = 40;
 531:pong.c        ****   menu.xLen = 6+(13*8);
 532:pong.c        ****   menu.yLen = 5*14;
 533:pong.c        ****   menu.noOfChoices = 3;
 534:pong.c        ****   menu.initialChoice = 0;
 535:pong.c        ****   menu.pHeaderText = "Type of Game?";
 536:pong.c        ****   menu.headerTextXpos = 13;
 537:pong.c        ****   menu.pChoice[0] = "Single player";
 538:pong.c        ****   menu.pChoice[1] = "Dual - Client";
 539:pong.c        ****   menu.pChoice[2] = "Dual - Server";
 540:pong.c        ****   menu.bgColor       = 0;
 541:pong.c        ****   menu.borderColor   = 0x6d;
 542:pong.c        ****   menu.headerColor   = 0;
 543:pong.c        ****   menu.choicesColor  = 0xfd;
 544:pong.c        ****   menu.selectedColor = 0xe0;
 545:pong.c        **** 
 546:pong.c        ****   switch (drawMenu(menu))
 547:pong.c        ****   {
 548:pong.c        ****   case 0: gameType = GAME_TYPE_SINGLE; break;  //Single player
 549:pong.c        ****   case 1:  //Dual player client
ARM GAS  /cygdrive/c/DOCUME~1/mkwapisz/LOCALS~1/Temp/ccwCXJbO.s 			page 11


 550:pong.c        ****     gameType = GAME_TYPE_DUAL_C;
 551:pong.c        **** 
 552:pong.c        ****     lcdRect(2, 16, 125, 84, 0x6d);
 553:pong.c        ****     lcdRect(4, 18, 121, 80, 0x00);
 554:pong.c        ****     lcdColor(0x00,0xfd);
 555:pong.c        **** 
 556:pong.c        ****     //search for available servers...
 557:pong.c        ****     if (TRUE == searchServers(btAddress))
 558:pong.c        ****     {
 559:pong.c        ****       //print "trying to connect" message...
 560:pong.c        ****       lcdRect(2, 16, 125, 84, 0x6d);
 561:pong.c        ****       lcdRect(4, 18, 121, 80, 0x00);
 562:pong.c        ****       lcdColor(0x00,0xfd);
 563:pong.c        ****       lcdGotoxy(8,18);
 564:pong.c        ****       lcdPuts("Connecting");
 565:pong.c        **** 
 566:pong.c        ****       //connect
 567:pong.c        ****       if (TRUE == connectToServer(btAddress))
 568:pong.c        ****         done = FALSE; //start playing as client
 569:pong.c        ****       else
 570:pong.c        ****       {
 571:pong.c        ****         lcdGotoxy(8,32);
 572:pong.c        ****         displayMessage("Failed to", 3);
 573:pong.c        ****         lcdGotoxy(8,46);
 574:pong.c        ****         displayMessage("connect...", 3);
 575:pong.c        ****         osSleep(150);
 576:pong.c        **** 
 577:pong.c        ****         //failed to connect
 578:pong.c        ****         done = TRUE;
 579:pong.c        ****       }
 580:pong.c        ****     }
 581:pong.c        ****     else
 582:pong.c        ****       done = TRUE;
 583:pong.c        ****     break;
 584:pong.c        **** 
 585:pong.c        ****   case 2:  //Dual player server
 586:pong.c        ****     {
 587:pong.c        ****       tU32 cnt = 0;
 588:pong.c        ****       tU8  key;
 589:pong.c        **** 
 590:pong.c        ****       //print "waiting for connection" message...
 591:pong.c        ****       lcdRect(2, 16, 125, 84, 0x6d);
 592:pong.c        ****       lcdRect(4, 18, 121, 80, 0x00);
 593:pong.c        ****       lcdColor(0x00,0xfd);
 594:pong.c        ****       lcdGotoxy(8,18);
 595:pong.c        ****       lcdPuts("Waiting for");
 596:pong.c        ****       lcdGotoxy(8,32);
 597:pong.c        ****       lcdPuts("client conn");
 598:pong.c        **** 
 599:pong.c        ****       gameType = GAME_TYPE_DUAL_S;
 600:pong.c        ****       activateServer();
 601:pong.c        **** 
 602:pong.c        ****       connected = FALSE;
 603:pong.c        ****       while (connected == FALSE)
 604:pong.c        ****       {
 605:pong.c        ****         key = checkKey();
 606:pong.c        **** 
ARM GAS  /cygdrive/c/DOCUME~1/mkwapisz/LOCALS~1/Temp/ccwCXJbO.s 			page 12


 607:pong.c        ****         if (TRUE == checkIfClinetConnected(btAddress))
 608:pong.c        ****         {
 609:pong.c        ****           //print from which BT address
 610:pong.c        ****           lcdGotoxy(8,18);
 611:pong.c        ****           lcdPuts("Request from");
 612:pong.c        ****           lcdGotoxy(8,32);
 613:pong.c        ****           lcdPuts(btAddress);
 614:pong.c        ****           lcdPuts("  ");
 615:pong.c        **** 
 616:pong.c        ****           //ask player if start playing with connected client
 617:pong.c        ****           menu.xPos = 10;
 618:pong.c        ****           menu.yPos = 50;
 619:pong.c        ****           menu.xLen = 6+(13*8);
 620:pong.c        ****           menu.yLen = 5*14;
 621:pong.c        ****           menu.noOfChoices = 2;
 622:pong.c        ****           menu.initialChoice = 0;
 623:pong.c        ****           menu.pHeaderText = "Accept conn?";
 624:pong.c        ****           menu.headerTextXpos = 17;
 625:pong.c        ****           menu.pChoice[0] = "Start playing";
 626:pong.c        ****           menu.pChoice[1] = "Refuse";
 627:pong.c        ****           menu.bgColor       = 0;
 628:pong.c        ****           menu.borderColor   = 0x6d;
 629:pong.c        ****           menu.headerColor   = 0;
 630:pong.c        ****           menu.choicesColor  = 0xfd;
 631:pong.c        ****           menu.selectedColor = 0xe0;
 632:pong.c        **** 
 633:pong.c        ****           switch (drawMenu(menu))
 634:pong.c        ****           {
 635:pong.c        ****           case 0: uart1SendString("\nLETS START PLAYING\n"); done = FALSE; break;  //start playing 
 636:pong.c        ****           case 1: uart1SendString("+++"); done = TRUE; break;                      //refuse connect
 637:pong.c        ****           default: break;
 638:pong.c        ****           }
 639:pong.c        ****           connected = TRUE;
 640:pong.c        ****         }
 641:pong.c        **** 
 642:pong.c        ****         //check if any key pressed to cancel waiting
 643:pong.c        ****         else if (key != KEY_NOTHING)
 644:pong.c        ****         {
 645:pong.c        ****           //cancel server and exit game
 646:pong.c        ****           done = TRUE;
 647:pong.c        ****           break;
 648:pong.c        ****         }
 649:pong.c        **** 
 650:pong.c        ****         else
 651:pong.c        ****         {
 652:pong.c        ****           //print activity indicator
 653:pong.c        ****           lcdGotoxy(96,30);
 654:pong.c        ****           lcdColor(0x00,0xfd);
 655:pong.c        ****           switch (cnt % 150)
 656:pong.c        ****           {
 657:pong.c        ****           case   0: lcdPuts("   ");break;
 658:pong.c        ****           case  25: lcdPuts(".  ");break;
 659:pong.c        ****           case  50: lcdPuts(".. ");break;
 660:pong.c        ****           case  75: lcdPuts("...");break;
 661:pong.c        ****           case 100: lcdPuts(" ..");break;
 662:pong.c        ****           case 125: lcdPuts("  .");break;
 663:pong.c        ****           default: break;
ARM GAS  /cygdrive/c/DOCUME~1/mkwapisz/LOCALS~1/Temp/ccwCXJbO.s 			page 13


 664:pong.c        ****           }
 665:pong.c        ****           cnt++;
 666:pong.c        ****           osSleep(1);
 667:pong.c        ****         }
 668:pong.c        ****       }
 669:pong.c        ****     }
 670:pong.c        ****     break;
 671:pong.c        ****   default: break;
 672:pong.c        ****   }
 673:pong.c        **** 
 674:pong.c        ****   while (done == FALSE)
 675:pong.c        ****   {
 676:pong.c        ****     player1.score = 0;
 677:pong.c        ****     player2.score = 0;
 678:pong.c        ****     gameOver = FALSE;
 679:pong.c        **** 
 680:pong.c        ****     startNewServ(&player1);
 681:pong.c        ****     paintGame();
 682:pong.c        **** 
 683:pong.c        ****     while (!gameOver)
 684:pong.c        ****     {
 685:pong.c        ****       volatile tU8 key = checkKey2();
 686:pong.c        **** 
 687:pong.c        ****       if (gameType == GAME_TYPE_SINGLE)
 688:pong.c        ****       {
 689:pong.c        ****         player1.key = key;
 690:pong.c        ****         player2.key = key;
 691:pong.c        ****         movePlayer(pActivePlayer, key);
 692:pong.c        ****       }
 693:pong.c        ****       else
 694:pong.c        ****       {
 695:pong.c        ****         // get data from server 
 696:pong.c        ****         if (FALSE == btSendAndRecvStatus(key, FALSE))
 697:pong.c        ****         {
 698:pong.c        ****           gameOver = TRUE;
 699:pong.c        **** 
 700:pong.c        ****           menu.xPos = 2;
 701:pong.c        ****           menu.yPos = 40;
 702:pong.c        ****           menu.xLen = 6+(15*8);
 703:pong.c        ****           menu.yLen = 3*14;
 704:pong.c        ****           menu.noOfChoices = 1;
 705:pong.c        ****           menu.initialChoice = 0;
 706:pong.c        ****           menu.pHeaderText = "Lost connection";
 707:pong.c        ****           menu.headerTextXpos = 4;
 708:pong.c        ****           menu.pChoice[0] = "End game";
 709:pong.c        ****           menu.bgColor       = 0;
 710:pong.c        ****           menu.borderColor   = 0x6d;
 711:pong.c        ****           menu.headerColor   = 0;
 712:pong.c        ****           menu.choicesColor  = 0xfd;
 713:pong.c        ****           menu.selectedColor = 0xe0;
 714:pong.c        **** 
 715:pong.c        ****           switch (drawMenu(menu)) {
 716:pong.c        ****           case 0: done = TRUE; break;   //End game
 717:pong.c        ****           default: break;
 718:pong.c        ****           }
 719:pong.c        ****         }
 720:pong.c        **** 
ARM GAS  /cygdrive/c/DOCUME~1/mkwapisz/LOCALS~1/Temp/ccwCXJbO.s 			page 14


 721:pong.c        **** //        if(gameType == GAME_TYPE_DUAL_S)
 722:pong.c        ****         {
 723:pong.c        ****           player2.key = key;
 724:pong.c        ****         }
 725:pong.c        **** 
 726:pong.c        ****         player1.key = remoteClientKey;
 727:pong.c        **** 
 728:pong.c        ****         if (gameType == GAME_TYPE_DUAL_C 
 729:pong.c        ****             || remoteClientKey == KEY_UP || remoteClientKey == KEY_DOWN)
 730:pong.c        ****         {
 731:pong.c        ****           movePlayer(&player1, remoteClientKey);
 732:pong.c        ****         }
 733:pong.c        **** 
 734:pong.c        ****         movePlayer(&player2, key);
 735:pong.c        ****       }
 736:pong.c        **** 
 737:pong.c        ****       moveBall(key);
 738:pong.c        **** 
 739:pong.c        ****       if (player1.score == WIN_SCORE || player2.score == WIN_SCORE)
 740:pong.c        ****       {
 741:pong.c        ****         // make sure that client is updated
 742:pong.c        ****         btSendAndRecvStatus(0, TRUE);
 743:pong.c        **** 
 744:pong.c        ****         gameOver = TRUE;
 745:pong.c        **** 
 746:pong.c        ****         menu.xPos = 10;
 747:pong.c        ****         menu.yPos = 40;
 748:pong.c        ****         menu.xLen = 6+(12*8);
 749:pong.c        ****         menu.yLen = 4*14;
 750:pong.c        ****         menu.noOfChoices = 2;
 751:pong.c        ****         menu.initialChoice = 0;
 752:pong.c        ****         menu.pHeaderText = "Game over!";
 753:pong.c        ****         menu.headerTextXpos = 20;
 754:pong.c        ****         menu.pChoice[0] = "Restart game";
 755:pong.c        ****         menu.pChoice[1] = "End game";
 756:pong.c        ****         menu.bgColor       = 0;
 757:pong.c        ****         menu.borderColor   = 0x6d;
 758:pong.c        ****         menu.headerColor   = 0;
 759:pong.c        ****         menu.choicesColor  = 0xfd;
 760:pong.c        ****         menu.selectedColor = 0xe0;
 761:pong.c        **** 
 762:pong.c        ****         switch (drawMenu(menu))
 763:pong.c        ****         {
 764:pong.c        ****         case 0: done = FALSE; break;  //Restart game
 765:pong.c        ****         case 1: done = TRUE; break;   //End game
 766:pong.c        ****         default: break;
 767:pong.c        ****         }
 768:pong.c        ****       }
 769:pong.c        ****     }
 770:pong.c        ****   }
 771:pong.c        ****   
 772:pong.c        ****   lcdRect(2, 16, 125, 84, 0x6d);
 773:pong.c        ****   lcdRect(4, 18, 121, 80, 0x00);
 774:pong.c        ****   lcdColor(0x00,0xfd);
 775:pong.c        ****   lcdGotoxy(8,18);
 776:pong.c        ****   lcdPuts("Exiting...");
 777:pong.c        **** 
ARM GAS  /cygdrive/c/DOCUME~1/mkwapisz/LOCALS~1/Temp/ccwCXJbO.s 			page 15


 778:pong.c        ****   activateBtProc();
 779:pong.c        **** }
 780:pong.c        **** 
 781:pong.c        **** 
 782:pong.c        **** 
 783:pong.c        **** /******************************************************************************
 784:pong.c        ****  ******************************************************************************
 785:pong.c        ****  * BLUETOOTH HANDLING PARTS
 786:pong.c        ****  ******************************************************************************
 787:pong.c        ****  *****************************************************************************/
 788:pong.c        **** #define RECV_BUF_LEN 40
 789:pong.c        **** static tU8 recvPos;
 790:pong.c        **** static tU8 recvBuf[RECV_BUF_LEN];
 791:pong.c        **** 
 792:pong.c        **** 
 793:pong.c        **** /******************************************************************************
 794:pong.c        ****  * Activate server functionality
 795:pong.c        ****  *****************************************************************************/
 796:pong.c        **** static void
 797:pong.c        **** activateServer(void)
 798:pong.c        **** {
 799:pong.c        ****   osSleep(100);
 800:pong.c        ****   uart1SendString("+++");
 801:pong.c        ****   osSleep(100);
 802:pong.c        ****   uart1SendString("AT+BTCAN\r");
 803:pong.c        ****   osSleep(50);
 804:pong.c        ****   uart1SendString("AT+BTSRV=20,\"PingPongServer\"\r");
 805:pong.c        ****   recvPos = 0;
 806:pong.c        **** }
 807:pong.c        **** 
 808:pong.c        **** /******************************************************************************
 809:pong.c        ****  * Return: TRUE if connection established
 810:pong.c        ****  *         FALSE if no connection established
 811:pong.c        ****  *****************************************************************************/
 812:pong.c        **** static tBool
 813:pong.c        **** checkIfClinetConnected(tU8 *pBtAddr)
 814:pong.c        **** {
 815:pong.c        ****   tU8 rxChar;
 816:pong.c        **** 
 817:pong.c        ****   //check if any character has been received from BT
 818:pong.c        ****   if (uart1GetChar(&rxChar) == TRUE)
 819:pong.c        ****   {
 820:pong.c        ****     printf("%c", rxChar);
 821:pong.c        **** 
 822:pong.c        ****     if (rxChar == 0x0a)
 823:pong.c        ****     {
 824:pong.c        ****       if (recvPos > 0)
 825:pong.c        ****         recvBuf[recvPos-1] = '\0';
 826:pong.c        **** 
 827:pong.c        ****       //evaluate received bytes
 828:pong.c        ****       if ((memcmp(recvBuf, "CONNECT ", 8) == 0) && (recvPos == 21))
 829:pong.c        ****       {
 830:pong.c        ****         for (recvPos=0; recvPos<12; recvPos++)
 831:pong.c        ****         {
 832:pong.c        ****           *pBtAddr = recvBuf[recvPos + 8];
 833:pong.c        ****           pBtAddr++;
 834:pong.c        ****         }
ARM GAS  /cygdrive/c/DOCUME~1/mkwapisz/LOCALS~1/Temp/ccwCXJbO.s 			page 16


 835:pong.c        ****         *pBtAddr = '\0';
 836:pong.c        **** 
 837:pong.c        ****         return TRUE;
 838:pong.c        ****       }
 839:pong.c        ****       recvPos = 0;
 840:pong.c        ****     }
 841:pong.c        ****     else if (recvPos < RECV_BUF_LEN)
 842:pong.c        ****       recvBuf[recvPos++] = rxChar;
 843:pong.c        ****   }
 844:pong.c        **** 
 845:pong.c        ****   //no connection established
 846:pong.c        ****   return FALSE;
 847:pong.c        **** }
 848:pong.c        **** 
 849:pong.c        **** 
 850:pong.c        **** /******************************************************************************
 851:pong.c        ****  * Return: TRUE if connection succeeded
 852:pong.c        ****  *         FALSE if connection failed
 853:pong.c        ****  *****************************************************************************/
 854:pong.c        **** static tBool
 855:pong.c        **** connectToServer(tU8 *pBtAddr)
 856:pong.c        **** {
 857:pong.c        ****   volatile tU32 timeStamp;
 858:pong.c        ****   tU8 connected;
 859:pong.c        ****   tU8 rxChar;
 860:pong.c        ****   tU32 cnt = 0;
 861:pong.c        **** 
 862:pong.c        ****   osSleep(100);
 863:pong.c        ****   uart1SendString("+++");
 864:pong.c        ****   osSleep(100);
 865:pong.c        ****   uart1SendString("AT+BTCAN\r");
 866:pong.c        ****   osSleep(50);
 867:pong.c        ****   uart1SendString("AT+BTCLT=\"");
 868:pong.c        ****   uart1SendString(pBtAddr);
 869:pong.c        ****   uart1SendString("\",20,3\r");
 870:pong.c        ****   osSleep(100);
 871:pong.c        **** 
 872:pong.c        ****   //wait for response "CONNECT <BTADDR>" 
 873:pong.c        ****   timeStamp = ms;
 874:pong.c        ****   connected = FALSE;
 875:pong.c        ****   recvPos = 0;
 876:pong.c        ****   while ((connected == FALSE) && ((ms - timeStamp) < 10000))
 877:pong.c        ****   {
 878:pong.c        ****     //check if any character has been received from BT
 879:pong.c        ****     if (uart1GetChar(&rxChar) == TRUE)
 880:pong.c        ****     {
 881:pong.c        ****       printf("%c", rxChar);
 882:pong.c        **** 
 883:pong.c        ****       if (rxChar == 0x0a)
 884:pong.c        ****       {
 885:pong.c        ****         if (recvPos > 0)
 886:pong.c        ****           recvBuf[recvPos-1] = '\0';
 887:pong.c        **** 
 888:pong.c        ****         //evaluate received bytes
 889:pong.c        ****         if ((memcmp(recvBuf, "CONNECT ", 8) == 0) && (recvPos == 21))
 890:pong.c        ****         {
 891:pong.c        ****           connected = TRUE;
ARM GAS  /cygdrive/c/DOCUME~1/mkwapisz/LOCALS~1/Temp/ccwCXJbO.s 			page 17


 892:pong.c        ****         }
 893:pong.c        ****         else if ((memcmp(recvBuf, "NO CARRIER", 10) == 0))
 894:pong.c        ****         {
 895:pong.c        ****           return FALSE;
 896:pong.c        ****         }
 897:pong.c        ****         recvPos = 0;
 898:pong.c        ****       }
 899:pong.c        ****       else if (recvPos < RECV_BUF_LEN)
 900:pong.c        ****         recvBuf[recvPos++] = rxChar;
 901:pong.c        ****     }
 902:pong.c        ****     osSleep(1);
 903:pong.c        **** 
 904:pong.c        ****     //print activity indicator
 905:pong.c        ****     lcdGotoxy(88,18);
 906:pong.c        ****     lcdColor(0x00,0xfd);
 907:pong.c        ****     switch (cnt % 150)
 908:pong.c        ****     {
 909:pong.c        ****     case   0: lcdPuts("   ");break;
 910:pong.c        ****     case  25: lcdPuts(".  ");break;
 911:pong.c        ****     case  50: lcdPuts(".. ");break;
 912:pong.c        ****     case  75: lcdPuts("...");break;
 913:pong.c        ****     case 100: lcdPuts(" ..");break;
 914:pong.c        ****     case 125: lcdPuts("  .");break;
 915:pong.c        ****     default: break;
 916:pong.c        ****     }
 917:pong.c        ****     cnt++;
 918:pong.c        ****   }
 919:pong.c        **** 
 920:pong.c        ****   //wait for accpet from server
 921:pong.c        ****   if (connected == TRUE)
 922:pong.c        ****   {
 923:pong.c        ****     //wait for response "LETS START PLAYING" 
 924:pong.c        ****     timeStamp = ms;
 925:pong.c        ****     connected = FALSE;
 926:pong.c        ****     recvPos = 0;
 927:pong.c        ****     while ((connected == FALSE) && ((ms - timeStamp) < 10000))
 928:pong.c        ****     {
 929:pong.c        ****       //check if any character has been received from BT
 930:pong.c        ****       if (uart1GetChar(&rxChar) == TRUE)
 931:pong.c        ****       {
 932:pong.c        ****         printf("%c", rxChar);
 933:pong.c        **** 
 934:pong.c        ****         if (rxChar == 0x0a)
 935:pong.c        ****         {
 936:pong.c        ****           if (recvPos > 0)
 937:pong.c        ****             recvBuf[recvPos-1] = '\0';
 938:pong.c        **** 
 939:pong.c        ****           //evaluate received bytes
 940:pong.c        ****           if (memcmp(recvBuf, "LETS START PLAYING", 18) == 0)
 941:pong.c        ****           {
 942:pong.c        ****             return TRUE;
 943:pong.c        ****           }
 944:pong.c        ****           else if ((memcmp(recvBuf, "NO CARRIER", 10) == 0))
 945:pong.c        ****           {
 946:pong.c        ****             return FALSE;
 947:pong.c        ****           }
 948:pong.c        ****           recvPos = 0;
ARM GAS  /cygdrive/c/DOCUME~1/mkwapisz/LOCALS~1/Temp/ccwCXJbO.s 			page 18


 949:pong.c        ****         }
 950:pong.c        ****         else if (recvPos < RECV_BUF_LEN)
 951:pong.c        ****           recvBuf[recvPos++] = rxChar;
 952:pong.c        ****       }
 953:pong.c        ****       osSleep(1);
 954:pong.c        **** 
 955:pong.c        ****       //print activity indicator
 956:pong.c        ****       lcdGotoxy(88,18);
 957:pong.c        ****       lcdColor(0x00,0xfd);
 958:pong.c        ****       switch (cnt % 150)
 959:pong.c        ****       {
 960:pong.c        ****       case   0: lcdPuts("   ");break;
 961:pong.c        ****       case  25: lcdPuts("*  ");break;
 962:pong.c        ****       case  50: lcdPuts("** ");break;
 963:pong.c        ****       case  75: lcdPuts("***");break;
 964:pong.c        ****       case 100: lcdPuts(" **");break;
 965:pong.c        ****       case 125: lcdPuts("  *");break;
 966:pong.c        ****       default: break;
 967:pong.c        ****       }
 968:pong.c        ****       cnt++;
 969:pong.c        ****     }
 970:pong.c        ****   }
 971:pong.c        **** 
 972:pong.c        ****   return FALSE;
 973:pong.c        **** }
 974:pong.c        **** 
 975:pong.c        **** 
 976:pong.c        **** static void
 977:pong.c        **** convertToDigits(tU8 *pBuf, tU8 value)
 978:pong.c        **** {
  18              		.loc 1 978 0
  19              	.LVL0:
 979:pong.c        ****   static const tU8 toHex[16] = {'0', '1', '2', '3', '4', '5', '6', '7', '8', '9', 'A', 'B', 'C', 'D
 980:pong.c        **** 
 981:pong.c        ****   *pBuf++ = toHex[value >> 4];
  20              		.loc 1 981 0
  21 0000 044A     		ldr	r2, .L3
  22              		.loc 1 978 0
  23 0002 0906     		lsl	r1, r1, #24
  24              	.LVL1:
  25              		.loc 1 981 0
  26 0004 0B0F     		lsr	r3, r1, #28
  27 0006 D35C     		ldrb	r3, [r2, r3]
 982:pong.c        ****   *pBuf   = toHex[value & 0x0f];
  28              		.loc 1 982 0
  29 0008 0901     		lsl	r1, r1, #4
  30 000a 090F     		lsr	r1, r1, #28
  31              		.loc 1 981 0
  32 000c 0370     		strb	r3, [r0]
  33              		.loc 1 982 0
  34 000e 535C     		ldrb	r3, [r2, r1]
  35              		.loc 1 978 0
  36              		@ lr needed for prologue
  37              		.loc 1 982 0
  38 0010 4370     		strb	r3, [r0, #1]
 983:pong.c        **** }
  39              		.loc 1 983 0
ARM GAS  /cygdrive/c/DOCUME~1/mkwapisz/LOCALS~1/Temp/ccwCXJbO.s 			page 19


  40              		@ sp needed for prologue
  41 0012 7047     		bx	lr
  42              	.L4:
  43              		.align	2
  44              	.L3:
  45 0014 00000000 		.word	toHex.3480
  46              	.LFE13:
  47              		.size	convertToDigits, .-convertToDigits
  48              		.align	2
  49              		.code 16
  50              		.thumb_func
  51              		.type	decodeFromDigits, %function
  52              	decodeFromDigits:
  53              	.LFB14:
 984:pong.c        **** 
 985:pong.c        **** static tBool
 986:pong.c        **** decodeFromDigits(tU8 *pBuf, tU8 *pValue)
 987:pong.c        **** {
  54              		.loc 1 987 0
  55 0018 10B5     		push	{r4, lr}
  56              	.LCFI0:
  57              	.LVL2:
 988:pong.c        ****   tU8   result = 99;
 989:pong.c        ****   tBool valid  = TRUE;
 990:pong.c        ****   
 991:pong.c        ****   if ((*pBuf >= '0') && (*pBuf <= '9'))
  58              		.loc 1 991 0
  59 001a 0278     		ldrb	r2, [r0]
  60 001c 131C     		mov	r3, r2
  61 001e 303B     		sub	r3, r3, #48
  62 0020 1B06     		lsl	r3, r3, #24
  63 0022 1B0E     		lsr	r3, r3, #24
  64              	.LVL3:
  65              		.loc 1 987 0
  66 0024 0C1C     		mov	r4, r1
  67              		.loc 1 991 0
  68 0026 092B     		cmp	r3, #9
  69 0028 0CD9     		bls	.L17
  70              	.LVL4:
 992:pong.c        ****   {
 993:pong.c        ****     result = *pBuf - '0';
 994:pong.c        ****   }
 995:pong.c        ****   else if ((*pBuf >= 'A') && (*pBuf <= 'F'))
  71              		.loc 1 995 0
  72 002a 131C     		mov	r3, r2
  73              	.LVL5:
  74 002c 413B     		sub	r3, r3, #65
  75 002e 1B06     		lsl	r3, r3, #24
  76 0030 1B0E     		lsr	r3, r3, #24
  77 0032 052B     		cmp	r3, #5
  78 0034 02D9     		bls	.L9
  79 0036 6323     		mov	r3, #99
  80              	.LVL6:
  81 0038 0021     		mov	r1, #0
  82              	.LVL7:
  83 003a 04E0     		b	.L8
  84              	.LVL8:
ARM GAS  /cygdrive/c/DOCUME~1/mkwapisz/LOCALS~1/Temp/ccwCXJbO.s 			page 20


  85              	.L9:
 996:pong.c        ****   {
 997:pong.c        ****     result = *pBuf - 'A' + 10;
  86              		.loc 1 997 0
  87 003c 131C     		mov	r3, r2
  88 003e 373B     		sub	r3, r3, #55
  89 0040 1B06     		lsl	r3, r3, #24
  90 0042 1B0E     		lsr	r3, r3, #24
  91              	.LVL9:
  92              	.L17:
  93 0044 0121     		mov	r1, #1
  94              	.LVL10:
  95              	.L8:
 998:pong.c        ****   }
 999:pong.c        ****   else
1000:pong.c        ****     valid = FALSE;
1001:pong.c        **** 
1002:pong.c        ****   result <<= 4;
1003:pong.c        ****   pBuf++;
1004:pong.c        ****   
1005:pong.c        ****   if ((*pBuf >= '0') && (*pBuf <= '9'))
  96              		.loc 1 1005 0
  97 0046 4078     		ldrb	r0, [r0, #1]
  98              	.LVL11:
  99              		.loc 1 1002 0
 100 0048 1B07     		lsl	r3, r3, #28
 101              	.LVL12:
 102 004a 1A0E     		lsr	r2, r3, #24
 103              	.LVL13:
 104              		.loc 1 1005 0
 105 004c 031C     		mov	r3, r0
 106 004e 303B     		sub	r3, r3, #48
 107 0050 1B06     		lsl	r3, r3, #24
 108 0052 1B0E     		lsr	r3, r3, #24
 109 0054 092B     		cmp	r3, #9
 110 0056 01D8     		bhi	.L11
1006:pong.c        ****   {
1007:pong.c        ****     result |= *pBuf - '0';
 111              		.loc 1 1007 0
 112 0058 1A43     		orr	r2, r2, r3
 113 005a 0CE0     		b	.L13
 114              	.L11:
1008:pong.c        ****   }
1009:pong.c        ****   else if ((*pBuf >= 'A') && (*pBuf <= 'F'))
 115              		.loc 1 1009 0
 116 005c 031C     		mov	r3, r0
 117 005e 413B     		sub	r3, r3, #65
 118 0060 1B06     		lsl	r3, r3, #24
 119 0062 1B0E     		lsr	r3, r3, #24
 120 0064 052B     		cmp	r3, #5
 121 0066 01D9     		bls	.L14
 122 0068 0021     		mov	r1, #0
 123 006a 04E0     		b	.L13
 124              	.L14:
1010:pong.c        ****   {
1011:pong.c        ****     result |= *pBuf - 'A' + 10;
 125              		.loc 1 1011 0
ARM GAS  /cygdrive/c/DOCUME~1/mkwapisz/LOCALS~1/Temp/ccwCXJbO.s 			page 21


 126 006c 031C     		mov	r3, r0
 127 006e 373B     		sub	r3, r3, #55
 128 0070 1343     		orr	r3, r3, r2
 129 0072 1B06     		lsl	r3, r3, #24
 130 0074 1A0E     		lsr	r2, r3, #24
 131              	.L13:
1012:pong.c        ****   }
1013:pong.c        ****   else
1014:pong.c        ****     valid = FALSE;
1015:pong.c        ****   
1016:pong.c        ****   *pValue = result;
1017:pong.c        ****   return valid;
1018:pong.c        **** }
 132              		.loc 1 1018 0
 133 0076 081C     		mov	r0, r1
 134              		.loc 1 1016 0
 135 0078 2270     		strb	r2, [r4]
 136              		.loc 1 1018 0
 137              		@ sp needed for prologue
 138              	.LVL14:
 139 007a 10BC     		pop	{r4}
 140 007c 02BC     		pop	{r1}
 141 007e 0847     		bx	r1
 142              	.LFE14:
 143              		.size	decodeFromDigits, .-decodeFromDigits
 144              		.align	2
 145              		.code 16
 146              		.thumb_func
 147              		.type	paintPlayer, %function
 148              	paintPlayer:
 149              	.LFB2:
 150              		.loc 1 177 0
 151 0080 10B5     		push	{r4, lr}
 152              	.LCFI1:
 153              	.LVL15:
 154              		.loc 1 178 0
 155 0082 0478     		ldrb	r4, [r0]
 156 0084 0279     		ldrb	r2, [r0, #4]
 157              		.loc 1 177 0
 158 0086 81B0     		sub	sp, sp, #4
 159              	.LCFI2:
 160              		.loc 1 178 0
 161 0088 4178     		ldrb	r1, [r0, #1]
 162 008a 8378     		ldrb	r3, [r0, #2]
 163 008c 0092     		str	r2, [sp]
 164 008e 201C     		mov	r0, r4
 165              	.LVL16:
 166 0090 0322     		mov	r2, #3
 167 0092 FFF7FEFF 		bl	lcdRect
 168              		.loc 1 179 0
 169 0096 01B0     		add	sp, sp, #4
 170              		@ sp needed for prologue
 171 0098 10BC     		pop	{r4}
 172 009a 01BC     		pop	{r0}
 173 009c 0047     		bx	r0
 174              	.LFE2:
 175              		.size	paintPlayer, .-paintPlayer
ARM GAS  /cygdrive/c/DOCUME~1/mkwapisz/LOCALS~1/Temp/ccwCXJbO.s 			page 22


 176 009e 0000     		.align	2
 177              		.code 16
 178              		.thumb_func
 179              		.type	movePlayer, %function
 180              	movePlayer:
 181              	.LFB7:
 182              		.loc 1 430 0
 183 00a0 10B5     		push	{r4, lr}
 184              	.LCFI3:
 185              	.LVL17:
 186 00a2 0906     		lsl	r1, r1, #24
 187              	.LVL18:
 188 00a4 090E     		lsr	r1, r1, #24
 189              	.LVL19:
 190 00a6 81B0     		sub	sp, sp, #4
 191              	.LCFI4:
 192              		.loc 1 430 0
 193 00a8 041C     		mov	r4, r0
 194              		.loc 1 431 0
 195 00aa 0029     		cmp	r1, #0
 196 00ac 03D1     		bne	.L21
 197              	.LVL20:
 198 00ae 2A4B     		ldr	r3, .L41
 199 00b0 1B78     		ldrb	r3, [r3]
 200 00b2 012B     		cmp	r3, #1
 201 00b4 4BD1     		bne	.L38
 202              	.L21:
 203              		.loc 1 434 0
 204 00b6 2948     		ldr	r0, .L41+4
 205 00b8 A368     		ldr	r3, [r4, #8]
 206 00ba 0268     		ldr	r2, [r0]
 207 00bc 1E33     		add	r3, r3, #30
 208 00be 9342     		cmp	r3, r2
 209 00c0 45D8     		bhi	.L38
 210              		.loc 1 437 0
 211 00c2 0368     		ldr	r3, [r0]
 212 00c4 A360     		str	r3, [r4, #8]
 213              		.loc 1 439 0
 214 00c6 244B     		ldr	r3, .L41
 215 00c8 1B78     		ldrb	r3, [r3]
 216 00ca 002B     		cmp	r3, #0
 217 00cc 01D0     		beq	.L25
 218 00ce 022B     		cmp	r3, #2
 219 00d0 1FD1     		bne	.L27
 220              	.L25:
 221              		.loc 1 441 0
 222 00d2 0229     		cmp	r1, #2
 223 00d4 0ED0     		beq	.L29
 224 00d6 0229     		cmp	r1, #2
 225 00d8 02D8     		bhi	.L32
 226 00da 0129     		cmp	r1, #1
 227 00dc 19D1     		bne	.L27
 228 00de 04E0     		b	.L28
 229              	.L32:
 230 00e0 0429     		cmp	r1, #4
 231 00e2 0AD0     		beq	.L30
 232 00e4 0829     		cmp	r1, #8
ARM GAS  /cygdrive/c/DOCUME~1/mkwapisz/LOCALS~1/Temp/ccwCXJbO.s 			page 23


 233 00e6 14D1     		bne	.L27
 234 00e8 0FE0     		b	.L31
 235              	.L28:
 236              		.loc 1 444 0
 237 00ea 6378     		ldrb	r3, [r4, #1]
 238 00ec 112B     		cmp	r3, #17
 239 00ee 2EDD     		ble	.L38
 240              		.loc 1 447 0
 241 00f0 013B     		sub	r3, r3, #1
 242 00f2 08E0     		b	.L39
 243              	.L29:
 244              		.loc 1 451 0
 245 00f4 1A4A     		ldr	r2, .L41+8
 246 00f6 1B4B     		ldr	r3, .L41+12
 247 00f8 09E0     		b	.L40
 248              	.L30:
 249              		.loc 1 455 0
 250 00fa 6278     		ldrb	r2, [r4, #1]
 251 00fc A378     		ldrb	r3, [r4, #2]
 252 00fe D318     		add	r3, r2, r3
 253 0100 802B     		cmp	r3, #128
 254 0102 24DC     		bgt	.L38
 255              		.loc 1 458 0
 256 0104 531C     		add	r3, r2, #1
 257              	.L39:
 258 0106 6370     		strb	r3, [r4, #1]
 259 0108 03E0     		b	.L27
 260              	.L31:
 261              		.loc 1 462 0
 262 010a 154A     		ldr	r2, .L41+8
 263 010c 164B     		ldr	r3, .L41+16
 264              	.L40:
 265 010e 1360     		str	r3, [r2]
 266 0110 1DE0     		b	.L38
 267              	.L27:
 268              		.loc 1 467 0
 269 0112 6378     		ldrb	r3, [r4, #1]
 270 0114 102B     		cmp	r3, #16
 271 0116 09D9     		bls	.L35
 272              		.loc 1 469 0
 273 0118 0E3B     		sub	r3, r3, #14
 274 011a 0022     		mov	r2, #0
 275 011c 1B06     		lsl	r3, r3, #24
 276 011e 0092     		str	r2, [sp]
 277 0120 2078     		ldrb	r0, [r4]
 278 0122 1B0E     		lsr	r3, r3, #24
 279 0124 1021     		mov	r1, #16
 280              	.LVL21:
 281 0126 0322     		mov	r2, #3
 282 0128 FFF7FEFF 		bl	lcdRect
 283              	.LVL22:
 284              	.L35:
 285              		.loc 1 473 0
 286 012c 201C     		mov	r0, r4
 287 012e FFF7A7FF 		bl	paintPlayer
 288              	.LVL23:
 289              		.loc 1 475 0
ARM GAS  /cygdrive/c/DOCUME~1/mkwapisz/LOCALS~1/Temp/ccwCXJbO.s 			page 24


 290 0132 6278     		ldrb	r2, [r4, #1]
 291 0134 A378     		ldrb	r3, [r4, #2]
 292 0136 D118     		add	r1, r2, r3
 293 0138 8029     		cmp	r1, #128
 294 013a 08DC     		bgt	.L38
 295              		.loc 1 477 0
 296 013c 0023     		mov	r3, #0
 297 013e 0906     		lsl	r1, r1, #24
 298 0140 0093     		str	r3, [sp]
 299 0142 2078     		ldrb	r0, [r4]
 300 0144 090E     		lsr	r1, r1, #24
 301 0146 0322     		mov	r2, #3
 302 0148 8123     		mov	r3, #129
 303 014a FFF7FEFF 		bl	lcdRect
 304              	.LVL24:
 305              	.L38:
 306              		.loc 1 482 0
 307 014e 01B0     		add	sp, sp, #4
 308              		@ sp needed for prologue
 309              	.LVL25:
 310 0150 10BC     		pop	{r4}
 311 0152 01BC     		pop	{r0}
 312 0154 0047     		bx	r0
 313              	.L42:
 314 0156 0000     		.align	2
 315              	.L41:
 316 0158 AC000000 		.word	gameType
 317 015c 00000000 		.word	ms
 318 0160 20000000 		.word	pActivePlayer
 319 0164 10000000 		.word	player2
 320 0168 00000000 		.word	player1
 321              	.LFE7:
 322              		.size	movePlayer, .-movePlayer
 323              		.section	.rodata.str1.4,"aMS",%progbits,1
 324              		.align	2
 325              	.LC8:
 326 0000 2D00     		.ascii	"-\000"
 327              		.text
 328              		.align	2
 329              		.code 16
 330              		.thumb_func
 331              		.type	drawBtsFound, %function
 332              	drawBtsFound:
 333              	.LFB17:
1019:pong.c        **** 
1020:pong.c        **** /******************************************************************************
1021:pong.c        ****  * Return: TRUE if connection established
1022:pong.c        ****  *         FALSE if no connection established
1023:pong.c        ****  *****************************************************************************/
1024:pong.c        **** static tBool
1025:pong.c        **** handleComm(void)
1026:pong.c        **** {
1027:pong.c        ****   tU8 rxChar;
1028:pong.c        **** 
1029:pong.c        ****   //check if any character has been received from BT
1030:pong.c        ****   if (uart1GetChar(&rxChar) == TRUE)
1031:pong.c        ****   {
ARM GAS  /cygdrive/c/DOCUME~1/mkwapisz/LOCALS~1/Temp/ccwCXJbO.s 			page 25


1032:pong.c        ****     if (rxChar == 0x0a)
1033:pong.c        ****     {
1034:pong.c        ****       //evaluate received bytes
1035:pong.c        ****       if ((recvBuf[0] == 'S') && (recvPos == 13))
1036:pong.c        ****       {
1037:pong.c        ****         if (gameType == GAME_TYPE_DUAL_C)
1038:pong.c        ****         {
1039:pong.c        ****           tU8 score1, score2, tmp;
1040:pong.c        ****           
1041:pong.c        ****           decodeFromDigits(&recvBuf[1],  &player1.yPos);
1042:pong.c        ****           decodeFromDigits(&recvBuf[3],  &player2.yPos);
1043:pong.c        ****           decodeFromDigits(&recvBuf[5],  &tmp);
1044:pong.c        ****           ball.sXPos = tmp;
1045:pong.c        ****           decodeFromDigits(&recvBuf[7],  &tmp);
1046:pong.c        ****           ball.sYPos = tmp;
1047:pong.c        ****           decodeFromDigits(&recvBuf[9],  &score1);
1048:pong.c        ****           decodeFromDigits(&recvBuf[11], &score2);
1049:pong.c        ****         
1050:pong.c        ****           if(player1.score != score1 || player2.score != score2)
1051:pong.c        ****           {
1052:pong.c        ****             player1.score = score1;
1053:pong.c        ****             player2.score = score2;
1054:pong.c        ****             paintScore();
1055:pong.c        ****           }
1056:pong.c        ****         }
1057:pong.c        ****         recvPos = 0;
1058:pong.c        **** 
1059:pong.c        ****         return TRUE;
1060:pong.c        ****       }
1061:pong.c        **** 
1062:pong.c        ****       if ((recvBuf[0] == 'C') && (recvPos == 3))
1063:pong.c        ****       {
1064:pong.c        ****         if (gameType == GAME_TYPE_DUAL_S)
1065:pong.c        ****         {
1066:pong.c        ****           decodeFromDigits(&recvBuf[1],  &remoteClientKey);
1067:pong.c        ****         }
1068:pong.c        ****         recvPos = 0;
1069:pong.c        **** 
1070:pong.c        ****         return TRUE;
1071:pong.c        ****       }
1072:pong.c        **** 
1073:pong.c        ****       else if ((memcmp(recvBuf, "NO CARRIER", 10) == 0))
1074:pong.c        ****       {
1075:pong.c        ****         return FALSE;
1076:pong.c        ****       }
1077:pong.c        ****       recvPos = 0;
1078:pong.c        ****     }
1079:pong.c        ****     else if (recvPos < RECV_BUF_LEN)
1080:pong.c        ****       recvBuf[recvPos++] = rxChar;
1081:pong.c        ****   }
1082:pong.c        **** 
1083:pong.c        ****   return TRUE;
1084:pong.c        **** }
1085:pong.c        **** 
1086:pong.c        **** 
1087:pong.c        **** static tBool 
1088:pong.c        **** btSendAndRecvStatus(tU8 key, tBool force)
ARM GAS  /cygdrive/c/DOCUME~1/mkwapisz/LOCALS~1/Temp/ccwCXJbO.s 			page 26


1089:pong.c        **** {
1090:pong.c        ****   tU8 buf[14];
1091:pong.c        ****   
1092:pong.c        ****   if (FALSE == handleComm())
1093:pong.c        ****     return FALSE;
1094:pong.c        **** 
1095:pong.c        ****   if (lastStatus + STATUS_UPDATE_TIME > ms && !force)
1096:pong.c        ****   {
1097:pong.c        ****     return TRUE;
1098:pong.c        ****   }
1099:pong.c        **** 
1100:pong.c        ****   if (gameType == GAME_TYPE_DUAL_S)
1101:pong.c        ****   {
1102:pong.c        ****     // send status info
1103:pong.c        ****     // - player positions and ball position
1104:pong.c        ****     buf[0] = 'S';
1105:pong.c        ****     convertToDigits(&buf[1],  (tU8)player1.yPos);
1106:pong.c        ****     convertToDigits(&buf[3],  (tU8)player2.yPos);
1107:pong.c        **** //    convertToDigits(&buf[5],  (tU8)round(ball.xPos));
1108:pong.c        ****     convertToDigits(&buf[5],  (tU8)floor(ball.xPos));
1109:pong.c        **** //    convertToDigits(&buf[7],  (tU8)round(ball.yPos));
1110:pong.c        ****     convertToDigits(&buf[7],  (tU8)floor(ball.yPos));
1111:pong.c        ****     convertToDigits(&buf[9],  (tU8)player1.score);
1112:pong.c        ****     convertToDigits(&buf[11], (tU8)player2.score);
1113:pong.c        ****     buf[13] = 0x0a;
1114:pong.c        ****     uart1SendChars(buf, 14);
1115:pong.c        **** 
1116:pong.c        ****   }
1117:pong.c        ****   else
1118:pong.c        ****   {
1119:pong.c        ****     // send key state
1120:pong.c        ****     buf[0] = 'C';
1121:pong.c        ****     convertToDigits(&buf[1],  key);
1122:pong.c        ****     buf[3] = 0x0a;
1123:pong.c        ****     uart1SendChars(buf, 4);
1124:pong.c        ****   }
1125:pong.c        **** 
1126:pong.c        ****   lastStatus = ms;
1127:pong.c        ****   
1128:pong.c        ****   return TRUE;
1129:pong.c        **** }
1130:pong.c        **** 
1131:pong.c        **** 
1132:pong.c        **** 
1133:pong.c        **** /*****************************************************************************
1134:pong.c        ****  *
1135:pong.c        ****  * Description:
1136:pong.c        ****  *    Prints the list of 'found' Bluetooth units
1137:pong.c        ****  *
1138:pong.c        ****  ****************************************************************************/
1139:pong.c        **** static void
1140:pong.c        **** drawBtsFound(tU8 cursorPos)
1141:pong.c        **** {
 334              		.loc 1 1141 0
 335 016c F0B5     		push	{r4, r5, r6, r7, lr}
 336              	.LCFI5:
 337              	.LVL26:
ARM GAS  /cygdrive/c/DOCUME~1/mkwapisz/LOCALS~1/Temp/ccwCXJbO.s 			page 27


 338              		.loc 1 1141 0
 339 016e 0006     		lsl	r0, r0, #24
 340              	.LVL27:
 341 0170 164C     		ldr	r4, .L61
 342 0172 070E     		lsr	r7, r0, #24
 343              	.LVL28:
 344 0174 0025     		mov	r5, #0
 345              	.LVL29:
 346 0176 1E26     		mov	r6, #30
 347              	.L44:
1142:pong.c        ****   tU32 row;
1143:pong.c        **** 
1144:pong.c        ****   for(row=0; row<MAX_BT_UNITS; row++)
1145:pong.c        ****   {
1146:pong.c        ****     lcdGotoxy(2,30+(14*row));
 348              		.loc 1 1146 0
 349 0178 0220     		mov	r0, #2
 350 017a 311C     		mov	r1, r6
 351 017c FFF7FEFF 		bl	lcdGotoxy
1147:pong.c        ****     if(foundBtUnits[row].active == FALSE)
 352              		.loc 1 1147 0
 353 0180 2378     		ldrb	r3, [r4]
 354 0182 002B     		cmp	r3, #0
 355 0184 0AD1     		bne	.L45
1148:pong.c        ****     {
1149:pong.c        ****       if (cursorPos == row)
 356              		.loc 1 1149 0
 357 0186 AF42     		cmp	r7, r5
 358 0188 02D1     		bne	.L47
1150:pong.c        ****         lcdColor(0x01,0xe0);
 359              		.loc 1 1150 0
 360 018a 0120     		mov	r0, #1
 361 018c E021     		mov	r1, #224
 362 018e 01E0     		b	.L58
 363              	.L47:
1151:pong.c        ****       else
1152:pong.c        ****         lcdColor(0x00,0xfd);
 364              		.loc 1 1152 0
 365 0190 0020     		mov	r0, #0
 366 0192 FD21     		mov	r1, #253
 367              	.L58:
 368 0194 FFF7FEFF 		bl	lcdColor
1153:pong.c        ****       lcdPuts("-");
 369              		.loc 1 1153 0
 370 0198 0D48     		ldr	r0, .L61+4
 371 019a 0CE0     		b	.L60
 372              	.L45:
1154:pong.c        ****     }
1155:pong.c        ****     else
1156:pong.c        ****     {
1157:pong.c        ****       if (cursorPos == row)
 373              		.loc 1 1157 0
 374 019c AF42     		cmp	r7, r5
 375 019e 02D1     		bne	.L51
1158:pong.c        ****         lcdColor(0x01,0xe0);
 376              		.loc 1 1158 0
 377 01a0 0120     		mov	r0, #1
ARM GAS  /cygdrive/c/DOCUME~1/mkwapisz/LOCALS~1/Temp/ccwCXJbO.s 			page 28


 378 01a2 E021     		mov	r1, #224
 379 01a4 01E0     		b	.L59
 380              	.L51:
1159:pong.c        ****       else
1160:pong.c        ****         lcdColor(0x00,0xfd);
 381              		.loc 1 1160 0
 382 01a6 0020     		mov	r0, #0
 383 01a8 FD21     		mov	r1, #253
 384              	.L59:
 385 01aa FFF7FEFF 		bl	lcdColor
1161:pong.c        ****       lcdPuts(foundBtUnits[row].btAddress);
 386              		.loc 1 1161 0
 387 01ae 074B     		ldr	r3, .L61
 388 01b0 6801     		lsl	r0, r5, #5
 389 01b2 C018     		add	r0, r0, r3
 390 01b4 0130     		add	r0, r0, #1
 391              	.L60:
 392              		.loc 1 1144 0
 393 01b6 0135     		add	r5, r5, #1
 394              		.loc 1 1161 0
 395 01b8 FFF7FEFF 		bl	lcdPuts
 396              		.loc 1 1144 0
 397 01bc 0E36     		add	r6, r6, #14
 398 01be 2034     		add	r4, r4, #32
 399 01c0 052D     		cmp	r5, #5
 400 01c2 D9D1     		bne	.L44
1162:pong.c        ****     }
1163:pong.c        ****   }
1164:pong.c        **** }
 401              		.loc 1 1164 0
 402              		@ sp needed for prologue
 403              	.LVL30:
 404              	.LVL31:
 405 01c4 F0BC     		pop	{r4, r5, r6, r7}
 406 01c6 01BC     		pop	{r0}
 407 01c8 0047     		bx	r0
 408              	.L62:
 409 01ca 0000     		.align	2
 410              	.L61:
 411 01cc 0C000000 		.word	foundBtUnits
 412 01d0 00000000 		.word	.LC8
 413              	.LFE17:
 414              		.size	drawBtsFound, .-drawBtsFound
 415              		.global	__udivsi3
 416              		.global	__umodsi3
 417              		.section	.rodata.str1.4
 418 0002 0000     		.align	2
 419              	.LC11:
 420 0004 506F6E67 		.ascii	"Pong\000"
 420      00
 421              		.text
 422              		.align	2
 423              		.code 16
 424              		.thumb_func
 425              		.type	paintScore, %function
 426              	paintScore:
 427              	.LFB3:
ARM GAS  /cygdrive/c/DOCUME~1/mkwapisz/LOCALS~1/Temp/ccwCXJbO.s 			page 29


 428              		.loc 1 190 0
 429 01d4 F0B5     		push	{r4, r5, r6, r7, lr}
 430              	.LCFI6:
 431              		.loc 1 195 0
 432 01d6 2E4E     		ldr	r6, .L65
 433 01d8 F478     		ldrb	r4, [r6, #3]
 434              		.loc 1 190 0
 435 01da 81B0     		sub	sp, sp, #4
 436              	.LCFI7:
 437              		.loc 1 195 0
 438 01dc 201C     		mov	r0, r4
 439 01de 6421     		mov	r1, #100
 440 01e0 FFF7FEFF 		bl	__udivsi3
 441 01e4 6D46     		mov	r5, sp
 442 01e6 3030     		add	r0, r0, #48
 443 01e8 2870     		strb	r0, [r5]
 444              		.loc 1 196 0
 445 01ea 0A21     		mov	r1, #10
 446 01ec 201C     		mov	r0, r4
 447 01ee FFF7FEFF 		bl	__udivsi3
 448 01f2 0006     		lsl	r0, r0, #24
 449 01f4 0A21     		mov	r1, #10
 450 01f6 000E     		lsr	r0, r0, #24
 451 01f8 FFF7FEFF 		bl	__umodsi3
 452 01fc 3030     		add	r0, r0, #48
 453 01fe 6870     		strb	r0, [r5, #1]
 454              		.loc 1 197 0
 455 0200 0A21     		mov	r1, #10
 456 0202 201C     		mov	r0, r4
 457 0204 FFF7FEFF 		bl	__umodsi3
 458              		.loc 1 198 0
 459 0208 0027     		mov	r7, #0
 460              		.loc 1 197 0
 461 020a 3030     		add	r0, r0, #48
 462 020c A870     		strb	r0, [r5, #2]
 463              		.loc 1 198 0
 464 020e EF70     		strb	r7, [r5, #3]
 465              		.loc 1 200 0
 466 0210 0020     		mov	r0, #0
 467 0212 3179     		ldrb	r1, [r6, #4]
 468 0214 FFF7FEFF 		bl	lcdColor
 469              		.loc 1 201 0
 470 0218 0021     		mov	r1, #0
 471 021a 0120     		mov	r0, #1
 472 021c FFF7FEFF 		bl	lcdGotoxy
 473              		.loc 1 202 0
 474 0220 6846     		mov	r0, sp
 475 0222 FFF7FEFF 		bl	lcdPuts
 476              		.loc 1 205 0
 477 0226 0020     		mov	r0, #0
 478 0228 0321     		mov	r1, #3
 479 022a FFF7FEFF 		bl	lcdColor
 480              		.loc 1 206 0
 481 022e 0021     		mov	r1, #0
 482 0230 2E20     		mov	r0, #46
 483 0232 FFF7FEFF 		bl	lcdGotoxy
 484              		.loc 1 207 0
ARM GAS  /cygdrive/c/DOCUME~1/mkwapisz/LOCALS~1/Temp/ccwCXJbO.s 			page 30


 485 0236 1748     		ldr	r0, .L65+4
 486 0238 FFF7FEFF 		bl	lcdPuts
 487              		.loc 1 211 0
 488 023c 164E     		ldr	r6, .L65+8
 489 023e F478     		ldrb	r4, [r6, #3]
 490 0240 6421     		mov	r1, #100
 491 0242 201C     		mov	r0, r4
 492 0244 FFF7FEFF 		bl	__udivsi3
 493 0248 3030     		add	r0, r0, #48
 494 024a 2870     		strb	r0, [r5]
 495              		.loc 1 212 0
 496 024c 0A21     		mov	r1, #10
 497 024e 201C     		mov	r0, r4
 498 0250 FFF7FEFF 		bl	__udivsi3
 499 0254 0006     		lsl	r0, r0, #24
 500 0256 0A21     		mov	r1, #10
 501 0258 000E     		lsr	r0, r0, #24
 502 025a FFF7FEFF 		bl	__umodsi3
 503 025e 3030     		add	r0, r0, #48
 504 0260 6870     		strb	r0, [r5, #1]
 505              		.loc 1 213 0
 506 0262 0A21     		mov	r1, #10
 507 0264 201C     		mov	r0, r4
 508 0266 FFF7FEFF 		bl	__umodsi3
 509 026a 3030     		add	r0, r0, #48
 510 026c A870     		strb	r0, [r5, #2]
 511              		.loc 1 214 0
 512 026e EF70     		strb	r7, [r5, #3]
 513              		.loc 1 216 0
 514 0270 0020     		mov	r0, #0
 515 0272 3179     		ldrb	r1, [r6, #4]
 516 0274 FFF7FEFF 		bl	lcdColor
 517              		.loc 1 217 0
 518 0278 0021     		mov	r1, #0
 519 027a 6620     		mov	r0, #102
 520 027c FFF7FEFF 		bl	lcdGotoxy
 521              		.loc 1 218 0
 522 0280 6846     		mov	r0, sp
 523 0282 FFF7FEFF 		bl	lcdPuts
 524              		.loc 1 219 0
 525 0286 01B0     		add	sp, sp, #4
 526              		@ sp needed for prologue
 527 0288 F0BC     		pop	{r4, r5, r6, r7}
 528 028a 01BC     		pop	{r0}
 529 028c 0047     		bx	r0
 530              	.L66:
 531 028e 0000     		.align	2
 532              	.L65:
 533 0290 00000000 		.word	player1
 534 0294 04000000 		.word	.LC11
 535 0298 10000000 		.word	player2
 536              	.LFE3:
 537              		.size	paintScore, .-paintScore
 538              		.align	2
 539              		.code 16
 540              		.thumb_func
 541              		.type	startNewServ, %function
ARM GAS  /cygdrive/c/DOCUME~1/mkwapisz/LOCALS~1/Temp/ccwCXJbO.s 			page 31


 542              	startNewServ:
 543              	.LFB5:
 544              		.loc 1 253 0
 545 029c 30B5     		push	{r4, r5, lr}
 546              	.LCFI8:
 547              	.LVL32:
 548              		.loc 1 254 0
 549 029e 0E4B     		ldr	r3, .L73
 550 02a0 1860     		str	r0, [r3]
 551              		.loc 1 256 0
 552 02a2 0E4B     		ldr	r3, .L73+4
 553              		.loc 1 253 0
 554 02a4 051C     		mov	r5, r0
 555 02a6 0E4A     		ldr	r2, .L73+8
 556              		.loc 1 256 0
 557 02a8 9842     		cmp	r0, r3
 558 02aa 02D1     		bne	.L68
 559              		.loc 1 257 0
 560 02ac 0D4B     		ldr	r3, .L73+12
 561 02ae 0E4C     		ldr	r4, .L73+16
 562 02b0 01E0     		b	.L72
 563              	.L68:
 564              		.loc 1 259 0
 565 02b2 0E4B     		ldr	r3, .L73+20
 566 02b4 0E4C     		ldr	r4, .L73+24
 567              	.L72:
 568 02b6 5361     		str	r3, [r2, #20]
 569 02b8 9461     		str	r4, [r2, #24]
 570              		.loc 1 261 0
 571 02ba 0E4B     		ldr	r3, .L73+28
 572 02bc 0E4C     		ldr	r4, .L73+32
 573 02be 084A     		ldr	r2, .L73+8
 574 02c0 D361     		str	r3, [r2, #28]
 575 02c2 1462     		str	r4, [r2, #32]
 576              		.loc 1 263 0
 577 02c4 FFF786FF 		bl	paintScore
 578              	.LVL33:
 579              		.loc 1 265 0
 580 02c8 0C4A     		ldr	r2, .L73+36
 581 02ca 0123     		mov	r3, #1
 582 02cc 1370     		strb	r3, [r2]
 583              		.loc 1 268 0
 584 02ce 0C4B     		ldr	r3, .L73+40
 585              		.loc 1 269 0
 586              		@ sp needed for prologue
 587              		.loc 1 268 0
 588 02d0 1D60     		str	r5, [r3]
 589              	.LVL34:
 590              		.loc 1 269 0
 591 02d2 30BC     		pop	{r4, r5}
 592 02d4 01BC     		pop	{r0}
 593 02d6 0047     		bx	r0
 594              	.L74:
 595              		.align	2
 596              	.L73:
 597 02d8 24000000 		.word	pServingPlayer
 598 02dc 00000000 		.word	player1
ARM GAS  /cygdrive/c/DOCUME~1/mkwapisz/LOCALS~1/Temp/ccwCXJbO.s 			page 32


 599 02e0 28000000 		.word	ball
 600 02e4 CCCC0440 		.word	1074056396
 601 02e8 CDCCCCCC 		.word	-858993459
 602 02ec CCCC04C0 		.word	-1073427252
 603 02f0 CDCCCCCC 		.word	-858993459
 604 02f4 0000F03F 		.word	1072693248
 605 02f8 00000000 		.word	0
 606 02fc 5C000000 		.word	serving
 607 0300 20000000 		.word	pActivePlayer
 608              	.LFE5:
 609              		.size	startNewServ, .-startNewServ
 610              		.section	.rodata.str1.4
 611 0009 000000   		.align	2
 612              	.LC22:
 613 000c 496E7175 		.ascii	"Inquiry\000"
 613      69727900 
 614              		.align	2
 615              	.LC24:
 616 0014 2B2B2B00 		.ascii	"+++\000"
 617              		.align	2
 618              	.LC26:
 619 0018 41542B42 		.ascii	"AT+BTCAN\015\000"
 619      5443414E 
 619      0D00
 620 0022 0000     		.align	2
 621              	.LC28:
 622 0024 41542B42 		.ascii	"AT+BTINQ=6\015\000"
 622      54494E51 
 622      3D360D00 
 623              		.align	2
 624              	.LC31:
 625 0030 256300   		.ascii	"%c\000"
 626 0033 00       		.align	2
 627              	.LC33:
 628 0034 2B425449 		.ascii	"+BTINQ: \000"
 628      4E513A20 
 628      00
 629 003d 000000   		.align	2
 630              	.LC35:
 631 0040 2B425449 		.ascii	"+BTINQ: COMPLETE\000"
 631      4E513A20 
 631      434F4D50 
 631      4C455445 
 631      00
 632 0051 000000   		.align	2
 633              	.LC37:
 634 0054 20202000 		.ascii	"   \000"
 635              		.align	2
 636              	.LC39:
 637 0058 2E202000 		.ascii	".  \000"
 638              		.align	2
 639              	.LC41:
 640 005c 2E2E2000 		.ascii	".. \000"
 641              		.align	2
 642              	.LC43:
 643 0060 2E2E2E00 		.ascii	"...\000"
 644              		.align	2
ARM GAS  /cygdrive/c/DOCUME~1/mkwapisz/LOCALS~1/Temp/ccwCXJbO.s 			page 33


 645              	.LC45:
 646 0064 202E2E00 		.ascii	" ..\000"
 647              		.align	2
 648              	.LC47:
 649 0068 20202E00 		.ascii	"  .\000"
 650              		.align	2
 651              	.LC49:
 652 006c 41542B42 		.ascii	"AT+BTSDP=\000"
 652      54534450 
 652      3D00
 653 0076 0000     		.align	2
 654              	.LC51:
 655 0078 0D00     		.ascii	"\015\000"
 656 007a 0000     		.align	2
 657              	.LC53:
 658 007c 2B425453 		.ascii	"+BTSDP: COMPLETE\000"
 658      44503A20 
 658      434F4D50 
 658      4C455445 
 658      00
 659 008d 000000   		.align	2
 660              	.LC55:
 661 0090 2B425453 		.ascii	"+BTSDP: \000"
 661      44503A20 
 661      00
 662 0099 000000   		.align	2
 663              	.LC57:
 664 009c 50696E67 		.ascii	"PingPongServer\000"
 664      506F6E67 
 664      53657276 
 664      657200
 665 00ab 00       		.align	2
 666              	.LC59:
 667 00ac 2A202000 		.ascii	"*  \000"
 668              		.align	2
 669              	.LC61:
 670 00b0 2A2A2000 		.ascii	"** \000"
 671              		.align	2
 672              	.LC63:
 673 00b4 2A2A2A00 		.ascii	"***\000"
 674              		.align	2
 675              	.LC65:
 676 00b8 202A2A00 		.ascii	" **\000"
 677              		.align	2
 678              	.LC67:
 679 00bc 20202A00 		.ascii	"  *\000"
 680              		.align	2
 681              	.LC69:
 682 00c0 2D646F6E 		.ascii	"-done\000"
 682      6500
 683              		.text
 684              		.align	2
 685              		.code 16
 686              		.thumb_func
 687              		.type	searchServers, %function
 688              	searchServers:
 689              	.LFB18:
ARM GAS  /cygdrive/c/DOCUME~1/mkwapisz/LOCALS~1/Temp/ccwCXJbO.s 			page 34


1165:pong.c        **** 
1166:pong.c        **** 
1167:pong.c        **** /******************************************************************************
1168:pong.c        ****  * Perform a BT inquiry after PingPong servers
1169:pong.c        ****  *****************************************************************************/
1170:pong.c        **** static tBool
1171:pong.c        **** searchServers(tU8 *pBtAddr)
1172:pong.c        **** {
 690              		.loc 1 1172 0
 691 0304 F0B5     		push	{r4, r5, r6, r7, lr}
 692              	.LCFI9:
 693              	.LVL35:
 694 0306 C54B     		ldr	r3, .L160
 695 0308 90B0     		sub	sp, sp, #64
 696              	.LCFI10:
 697 030a 191C     		mov	r1, r3
 698              		.loc 1 1172 0
 699 030c 0190     		str	r0, [sp, #4]
 700 030e A031     		add	r1, r1, #160
 701              	.LVL36:
 702              	.L76:
1173:pong.c        ****   tU8  rxChar;
1174:pong.c        ****   tU8  done;
1175:pong.c        ****   tU8  i;
1176:pong.c        ****   tU8  anyKey;
1177:pong.c        ****   tU8  cursorPos;
1178:pong.c        ****   volatile tU32 timeStamp;
1179:pong.c        ****   tU8  recvPos;
1180:pong.c        ****   tU8  recvBuf[RECV_BUF_LEN];
1181:pong.c        ****   tU8  foundBt;
1182:pong.c        ****   tU32 cnt;
1183:pong.c        **** 
1184:pong.c        ****   for(foundBt=0; foundBt<MAX_BT_UNITS; foundBt++)
1185:pong.c        ****   {
1186:pong.c        ****     foundBtUnits[foundBt].active = FALSE;
 703              		.loc 1 1186 0
 704 0310 0022     		mov	r2, #0
 705 0312 1A70     		strb	r2, [r3]
1187:pong.c        ****     foundBtUnits[foundBt].btName[0] = '\0';
 706              		.loc 1 1187 0
 707 0314 9A73     		strb	r2, [r3, #14]
 708 0316 2033     		add	r3, r3, #32
 709              		.loc 1 1184 0
 710 0318 8B42     		cmp	r3, r1
 711 031a F9D1     		bne	.L76
1188:pong.c        ****   }
1189:pong.c        **** 
1190:pong.c        ****   //clear menu screen
1191:pong.c        ****   lcdRect(1, 16, 126, 84, 0x00);
 712              		.loc 1 1191 0
 713 031c 5423     		mov	r3, #84
 714 031e 0092     		str	r2, [sp]
 715 0320 0120     		mov	r0, #1
 716 0322 7E22     		mov	r2, #126
 717 0324 1021     		mov	r1, #16
 718 0326 FFF7FEFF 		bl	lcdRect
1192:pong.c        ****   lcdGotoxy(18,16);
ARM GAS  /cygdrive/c/DOCUME~1/mkwapisz/LOCALS~1/Temp/ccwCXJbO.s 			page 35


 719              		.loc 1 1192 0
 720 032a 1220     		mov	r0, #18
 721 032c 1021     		mov	r1, #16
 722 032e FFF7FEFF 		bl	lcdGotoxy
1193:pong.c        ****   lcdColor(0x00,0xfd);
 723              		.loc 1 1193 0
 724 0332 FD21     		mov	r1, #253
 725 0334 0020     		mov	r0, #0
 726 0336 FFF7FEFF 		bl	lcdColor
1194:pong.c        ****   lcdPuts("Inquiry");
 727              		.loc 1 1194 0
 728 033a B948     		ldr	r0, .L160+4
 729 033c FFF7FEFF 		bl	lcdPuts
1195:pong.c        **** 
1196:pong.c        ****   //*************************************************************
1197:pong.c        ****   //* Start inquiry (during 6 seconds)
1198:pong.c        ****   //*************************************************************
1199:pong.c        ****   osSleep(100);
 730              		.loc 1 1199 0
 731 0340 6420     		mov	r0, #100
 732 0342 FFF7FEFF 		bl	osSleep
1200:pong.c        ****   uart1SendString("+++");
 733              		.loc 1 1200 0
 734 0346 B748     		ldr	r0, .L160+8
 735 0348 FFF7FEFF 		bl	uart1SendString
1201:pong.c        ****   osSleep(100);
 736              		.loc 1 1201 0
 737 034c 6420     		mov	r0, #100
 738 034e FFF7FEFF 		bl	osSleep
1202:pong.c        ****   uart1SendString("AT+BTCAN\r");
 739              		.loc 1 1202 0
 740 0352 B548     		ldr	r0, .L160+12
 741 0354 FFF7FEFF 		bl	uart1SendString
1203:pong.c        ****   osSleep(50);
 742              		.loc 1 1203 0
 743 0358 3220     		mov	r0, #50
 744 035a FFF7FEFF 		bl	osSleep
1204:pong.c        ****   uart1SendString("AT+BTINQ=6\r");
 745              		.loc 1 1204 0
 746 035e B348     		ldr	r0, .L160+16
 747 0360 FFF7FEFF 		bl	uart1SendString
1205:pong.c        **** 
1206:pong.c        ****   //*************************************************************
1207:pong.c        ****   //* Get (receive and interpret) discovered units
1208:pong.c        ****   //*************************************************************
1209:pong.c        ****   timeStamp = ms;
 748              		.loc 1 1209 0
 749 0364 B24B     		ldr	r3, .L160+20
 750 0366 1B68     		ldr	r3, [r3]
 751 0368 0025     		mov	r5, #0
 752              	.LVL37:
 753 036a 0E93     		str	r3, [sp, #56]
 754              	.LVL38:
 755 036c 0295     		str	r5, [sp, #8]
 756              	.LVL39:
 757 036e 0395     		str	r5, [sp, #12]
 758              	.LVL40:
ARM GAS  /cygdrive/c/DOCUME~1/mkwapisz/LOCALS~1/Temp/ccwCXJbO.s 			page 36


 759 0370 7EE0     		b	.L78
 760              	.LVL41:
 761              	.L79:
1210:pong.c        ****   done = FALSE;
1211:pong.c        ****   recvPos = 0;
1212:pong.c        ****   foundBt = 0;
1213:pong.c        ****   cnt = 0;
1214:pong.c        ****   while((done == FALSE) && ((ms - timeStamp) < 6500))
1215:pong.c        ****   {
1216:pong.c        ****     //check if any character has been received from BT
1217:pong.c        ****     if (uart1GetChar(&rxChar) == TRUE)
 762              		.loc 1 1217 0
 763 0372 6C46     		mov	r4, sp
 764              	.LVL42:
 765 0374 3F34     		add	r4, r4, #63
 766 0376 201C     		mov	r0, r4
 767 0378 FFF7FEFF 		bl	uart1GetChar
 768 037c 0128     		cmp	r0, #1
 769 037e 42D1     		bne	.L80
1218:pong.c        ****     {
1219:pong.c        ****       printf("%c", rxChar);
 770              		.loc 1 1219 0
 771 0380 AC48     		ldr	r0, .L160+24
 772 0382 2178     		ldrb	r1, [r4]
 773 0384 FFF7FEFF 		bl	simplePrintf
1220:pong.c        ****       
1221:pong.c        ****       if (rxChar == 0x0a)
 774              		.loc 1 1221 0
 775 0388 2078     		ldrb	r0, [r4]
 776 038a 0A28     		cmp	r0, #10
 777 038c 34D1     		bne	.L82
1222:pong.c        ****       {
1223:pong.c        ****         if (recvPos > 0)
 778              		.loc 1 1223 0
 779 038e 002D     		cmp	r5, #0
 780 0390 04D0     		beq	.L84
1224:pong.c        ****           recvBuf[recvPos-1] = '\0';
 781              		.loc 1 1224 0
 782 0392 10A9     		add	r1, sp, #64
 783 0394 4B19     		add	r3, r1, r5
 784 0396 313B     		sub	r3, r3, #49
 785 0398 0022     		mov	r2, #0
 786 039a 1A70     		strb	r2, [r3]
 787              	.L84:
1225:pong.c        **** 
1226:pong.c        ****         //evaluate received bytes
1227:pong.c        ****         if ((memcmp(recvBuf, "+BTINQ: ", 8) == 0) && (recvPos == 29))
 788              		.loc 1 1227 0
 789 039c A649     		ldr	r1, .L160+28
 790 039e 04A8     		add	r0, sp, #16
 791 03a0 0822     		mov	r2, #8
 792 03a2 FFF7FEFF 		bl	memcmp
 793 03a6 0028     		cmp	r0, #0
 794 03a8 1DD1     		bne	.L86
 795 03aa 1D2D     		cmp	r5, #29
 796 03ac 1BD1     		bne	.L86
1228:pong.c        ****         {
ARM GAS  /cygdrive/c/DOCUME~1/mkwapisz/LOCALS~1/Temp/ccwCXJbO.s 			page 37


1229:pong.c        ****           if (foundBt < MAX_BT_UNITS)
 797              		.loc 1 1229 0
 798 03ae 029A     		ldr	r2, [sp, #8]
 799 03b0 042A     		cmp	r2, #4
 800 03b2 2AD8     		bhi	.L89
 801              		.loc 1 1172 0
 802 03b4 5301     		lsl	r3, r2, #5
 803 03b6 994A     		ldr	r2, .L160
 804 03b8 9B18     		add	r3, r3, r2
 805 03ba 5A1C     		add	r2, r3, #1
 806 03bc 0021     		mov	r1, #0
 807              	.L91:
1230:pong.c        ****           {
1231:pong.c        ****             for(recvPos=0; recvPos<12; recvPos++)
1232:pong.c        ****               foundBtUnits[foundBt].btAddress[recvPos] = recvBuf[recvPos + 8];
 808              		.loc 1 1232 0
 809 03be 04AB     		add	r3, sp, #16
 810 03c0 CB18     		add	r3, r1, r3
 811 03c2 1B7A     		ldrb	r3, [r3, #8]
 812 03c4 0131     		add	r1, r1, #1
 813 03c6 1370     		strb	r3, [r2]
 814 03c8 0132     		add	r2, r2, #1
 815              		.loc 1 1231 0
 816 03ca 0C29     		cmp	r1, #12
 817 03cc F7D1     		bne	.L91
1233:pong.c        ****             foundBtUnits[foundBt].btAddress[12] = '\0';
 818              		.loc 1 1233 0
 819 03ce 0299     		ldr	r1, [sp, #8]
 820 03d0 924A     		ldr	r2, .L160
 821 03d2 4B01     		lsl	r3, r1, #5
 822 03d4 9B18     		add	r3, r3, r2
 823 03d6 0022     		mov	r2, #0
 824 03d8 5A73     		strb	r2, [r3, #13]
1234:pong.c        **** //            foundBtUnits[foundBt].active = TRUE;
1235:pong.c        ****             foundBt++;
 825              		.loc 1 1235 0
 826 03da 0B1C     		mov	r3, r1
 827 03dc 0133     		add	r3, r3, #1
 828 03de 1B06     		lsl	r3, r3, #24
 829 03e0 1B0E     		lsr	r3, r3, #24
 830 03e2 0293     		str	r3, [sp, #8]
 831 03e4 11E0     		b	.L89
 832              	.L86:
1236:pong.c        **** 
1237:pong.c        ****           }
1238:pong.c        ****         }
1239:pong.c        ****         else if (memcmp(recvBuf, "+BTINQ: COMPLETE", 16) == 0)
 833              		.loc 1 1239 0
 834 03e6 9549     		ldr	r1, .L160+32
 835 03e8 04A8     		add	r0, sp, #16
 836 03ea 1022     		mov	r2, #16
 837 03ec FFF7FEFF 		bl	memcmp
 838 03f0 0028     		cmp	r0, #0
 839 03f2 0AD1     		bne	.L89
 840 03f4 0124     		mov	r4, #1
 841              	.LVL43:
 842 03f6 09E0     		b	.L155
ARM GAS  /cygdrive/c/DOCUME~1/mkwapisz/LOCALS~1/Temp/ccwCXJbO.s 			page 38


 843              	.LVL44:
 844              	.L82:
1240:pong.c        ****         {
1241:pong.c        ****           done = TRUE;
1242:pong.c        ****         }
1243:pong.c        ****         recvPos = 0;
1244:pong.c        ****       }
1245:pong.c        ****       else if (recvPos < RECV_BUF_LEN)
 845              		.loc 1 1245 0
 846 03f8 272D     		cmp	r5, #39
 847 03fa 04D8     		bhi	.L80
1246:pong.c        ****         recvBuf[recvPos++] = rxChar;
 848              		.loc 1 1246 0
 849 03fc 04AB     		add	r3, sp, #16
 850 03fe 5855     		strb	r0, [r3, r5]
 851 0400 6B1C     		add	r3, r5, #1
 852 0402 1B06     		lsl	r3, r3, #24
 853 0404 1D0E     		lsr	r5, r3, #24
 854              	.L80:
 855 0406 0024     		mov	r4, #0
 856              	.LVL45:
 857 0408 01E0     		b	.L93
 858              	.LVL46:
 859              	.L89:
 860 040a 0024     		mov	r4, #0
 861              	.LVL47:
 862              	.L155:
 863 040c 0025     		mov	r5, #0
 864              	.L93:
1247:pong.c        ****     }
1248:pong.c        ****     osSleep(1);
 865              		.loc 1 1248 0
 866 040e 0120     		mov	r0, #1
 867 0410 FFF7FEFF 		bl	osSleep
1249:pong.c        **** 
1250:pong.c        ****     //print activity indicator
1251:pong.c        ****     lcdGotoxy(74,16);
 868              		.loc 1 1251 0
 869 0414 4A20     		mov	r0, #74
 870 0416 1021     		mov	r1, #16
 871 0418 FFF7FEFF 		bl	lcdGotoxy
1252:pong.c        ****     lcdColor(0x00,0xfd);
 872              		.loc 1 1252 0
 873 041c 0020     		mov	r0, #0
 874 041e FD21     		mov	r1, #253
 875 0420 FFF7FEFF 		bl	lcdColor
1253:pong.c        ****     switch(cnt % 150)
 876              		.loc 1 1253 0
 877 0424 0398     		ldr	r0, [sp, #12]
 878 0426 9621     		mov	r1, #150
 879 0428 FFF7FEFF 		bl	__umodsi3
 880 042c 3228     		cmp	r0, #50
 881 042e 11D0     		beq	.L99
 882 0430 3228     		cmp	r0, #50
 883 0432 04D8     		bhi	.L103
 884 0434 0028     		cmp	r0, #0
 885 0436 09D0     		beq	.L97
ARM GAS  /cygdrive/c/DOCUME~1/mkwapisz/LOCALS~1/Temp/ccwCXJbO.s 			page 39


 886 0438 1928     		cmp	r0, #25
 887 043a 14D1     		bne	.L96
 888 043c 08E0     		b	.L98
 889              	.L103:
 890 043e 6428     		cmp	r0, #100
 891 0440 0CD0     		beq	.L101
 892 0442 7D28     		cmp	r0, #125
 893 0444 0CD0     		beq	.L102
 894 0446 4B28     		cmp	r0, #75
 895 0448 0DD1     		bne	.L96
 896 044a 05E0     		b	.L100
 897              	.L97:
1254:pong.c        ****     {
1255:pong.c        ****       case   0: lcdPuts("   ");break;
 898              		.loc 1 1255 0
 899 044c 7C48     		ldr	r0, .L160+36
 900 044e 08E0     		b	.L156
 901              	.L98:
1256:pong.c        ****       case  25: lcdPuts(".  ");break;
 902              		.loc 1 1256 0
 903 0450 7C48     		ldr	r0, .L160+40
 904 0452 06E0     		b	.L156
 905              	.L99:
1257:pong.c        ****       case  50: lcdPuts(".. ");break;
 906              		.loc 1 1257 0
 907 0454 7C48     		ldr	r0, .L160+44
 908 0456 04E0     		b	.L156
 909              	.L100:
1258:pong.c        ****       case  75: lcdPuts("...");break;
 910              		.loc 1 1258 0
 911 0458 7C48     		ldr	r0, .L160+48
 912 045a 02E0     		b	.L156
 913              	.L101:
1259:pong.c        ****       case 100: lcdPuts(" ..");break;
 914              		.loc 1 1259 0
 915 045c 7C48     		ldr	r0, .L160+52
 916 045e 00E0     		b	.L156
 917              	.L102:
1260:pong.c        ****       case 125: lcdPuts("  .");break;
 918              		.loc 1 1260 0
 919 0460 7C48     		ldr	r0, .L160+56
 920              	.L156:
 921 0462 FFF7FEFF 		bl	lcdPuts
 922              	.L96:
1261:pong.c        ****       default: break;
1262:pong.c        ****     }
1263:pong.c        ****     cnt++;
 923              		.loc 1 1263 0
 924 0466 039A     		ldr	r2, [sp, #12]
 925 0468 0132     		add	r2, r2, #1
 926 046a 0392     		str	r2, [sp, #12]
 927              		.loc 1 1214 0
 928 046c 002C     		cmp	r4, #0
 929 046e 07D1     		bne	.L104
 930              	.L78:
 931 0470 6F4B     		ldr	r3, .L160+20
 932 0472 1B68     		ldr	r3, [r3]
ARM GAS  /cygdrive/c/DOCUME~1/mkwapisz/LOCALS~1/Temp/ccwCXJbO.s 			page 40


 933 0474 0E9A     		ldr	r2, [sp, #56]
 934 0476 9B1A     		sub	r3, r3, r2
 935 0478 774A     		ldr	r2, .L160+60
 936 047a 9342     		cmp	r3, r2
 937 047c 00D8     		bhi	.LCB883
 938 047e 78E7     		b	.L79	@long jump
 939              	.LCB883:
 940              	.L104:
 941 0480 0027     		mov	r7, #0
 942              	.LVL48:
 943 0482 90E0     		b	.L105
 944              	.LVL49:
 945              	.L106:
1264:pong.c        ****   }
1265:pong.c        **** 
1266:pong.c        ****   //*************************************************************
1267:pong.c        ****   //* Get name of discovered bt units
1268:pong.c        ****   //*************************************************************
1269:pong.c        ****   for(i=0; i<foundBt; i++)
1270:pong.c        ****   {
1271:pong.c        ****     uart1SendString("AT+BTSDP=");
 946              		.loc 1 1271 0
 947 0484 7548     		ldr	r0, .L160+64
 948 0486 FFF7FEFF 		bl	uart1SendString
1272:pong.c        ****     uart1SendString(foundBtUnits[i].btAddress);
 949              		.loc 1 1272 0
 950 048a 644B     		ldr	r3, .L160
 951 048c 7801     		lsl	r0, r7, #5
 952 048e C018     		add	r0, r0, r3
 953 0490 0130     		add	r0, r0, #1
 954 0492 FFF7FEFF 		bl	uart1SendString
1273:pong.c        ****     uart1SendString("\r");
 955              		.loc 1 1273 0
 956 0496 7248     		ldr	r0, .L160+68
 957 0498 FFF7FEFF 		bl	uart1SendString
1274:pong.c        **** 
1275:pong.c        ****     timeStamp = ms;
 958              		.loc 1 1275 0
 959 049c 644B     		ldr	r3, .L160+20
 960 049e 1B68     		ldr	r3, [r3]
 961 04a0 0026     		mov	r6, #0
 962 04a2 0E93     		str	r3, [sp, #56]
 963 04a4 75E0     		b	.L107
 964              	.L108:
1276:pong.c        ****     done = FALSE;
1277:pong.c        ****     recvPos = 0;
1278:pong.c        **** 
1279:pong.c        ****     while((done == FALSE) && ((ms - timeStamp) < 100000))
1280:pong.c        ****     {
1281:pong.c        ****       //check if any character has been received from BT
1282:pong.c        ****       if (uart1GetChar(&rxChar) == TRUE)
 965              		.loc 1 1282 0
 966 04a6 6C46     		mov	r4, sp
 967              	.LVL50:
 968 04a8 3F34     		add	r4, r4, #63
 969 04aa 201C     		mov	r0, r4
 970 04ac FFF7FEFF 		bl	uart1GetChar
ARM GAS  /cygdrive/c/DOCUME~1/mkwapisz/LOCALS~1/Temp/ccwCXJbO.s 			page 41


 971 04b0 051C     		mov	r5, r0
 972              	.LVL51:
 973 04b2 0128     		cmp	r0, #1
 974 04b4 38D1     		bne	.L109
1283:pong.c        ****       {
1284:pong.c        ****         printf("%c", rxChar);
 975              		.loc 1 1284 0
 976 04b6 5F48     		ldr	r0, .L160+24
 977 04b8 2178     		ldrb	r1, [r4]
 978 04ba FFF7FEFF 		bl	simplePrintf
1285:pong.c        ****       
1286:pong.c        ****         if (rxChar == 0x0a)
 979              		.loc 1 1286 0
 980 04be 2078     		ldrb	r0, [r4]
 981 04c0 0A28     		cmp	r0, #10
 982 04c2 2AD1     		bne	.L111
1287:pong.c        ****         {
1288:pong.c        ****           if (recvPos > 0)
 983              		.loc 1 1288 0
 984 04c4 002E     		cmp	r6, #0
 985 04c6 04D0     		beq	.L113
1289:pong.c        ****             recvBuf[recvPos-1] = '\0';
 986              		.loc 1 1289 0
 987 04c8 10A9     		add	r1, sp, #64
 988 04ca 8B19     		add	r3, r1, r6
 989 04cc 313B     		sub	r3, r3, #49
 990 04ce 0022     		mov	r2, #0
 991 04d0 1A70     		strb	r2, [r3]
 992              	.L113:
1290:pong.c        **** 
1291:pong.c        ****           //evaluate received bytes
1292:pong.c        ****           if (memcmp(recvBuf, "+BTSDP: COMPLETE", 16) == 0)
 993              		.loc 1 1292 0
 994 04d2 04AC     		add	r4, sp, #16
 995 04d4 6349     		ldr	r1, .L160+72
 996 04d6 201C     		mov	r0, r4
 997 04d8 1022     		mov	r2, #16
 998 04da FFF7FEFF 		bl	memcmp
 999 04de 0028     		cmp	r0, #0
 1000 04e0 01D1     		bne	.L115
 1001 04e2 0124     		mov	r4, #1
 1002              	.LVL52:
 1003 04e4 23E0     		b	.L157
 1004              	.LVL53:
 1005              	.L115:
1293:pong.c        ****             done = TRUE;
1294:pong.c        **** 
1295:pong.c        ****           else if (memcmp(recvBuf, "+BTSDP: ", 8) == 0)
 1006              		.loc 1 1295 0
 1007 04e6 6049     		ldr	r1, .L160+76
 1008 04e8 201C     		mov	r0, r4
 1009 04ea 0822     		mov	r2, #8
 1010 04ec FFF7FEFF 		bl	memcmp
 1011 04f0 0028     		cmp	r0, #0
 1012 04f2 1BD1     		bne	.L118
 1013              	.LBB2:
1296:pong.c        ****           {
ARM GAS  /cygdrive/c/DOCUME~1/mkwapisz/LOCALS~1/Temp/ccwCXJbO.s 			page 42


1297:pong.c        ****             tU8 *pStr;
1298:pong.c        ****             
1299:pong.c        ****             //seach for service name
1300:pong.c        ****             pStr = strchr(&recvBuf[10], '\"');
 1014              		.loc 1 1300 0
 1015 04f4 6846     		mov	r0, sp
 1016 04f6 2221     		mov	r1, #34
 1017 04f8 1A30     		add	r0, r0, #26
 1018 04fa FFF7FEFF 		bl	strchr
 1019 04fe 011C     		mov	r1, r0
1301:pong.c        ****             if (pStr != NULL)
 1020              		.loc 1 1301 0
 1021 0500 0028     		cmp	r0, #0
 1022 0502 13D0     		beq	.L118
1302:pong.c        ****             {
1303:pong.c        ****               pStr++;
1304:pong.c        **** 
1305:pong.c        ****               //get string (to '"')
1306:pong.c        ****               if (0 == strncmp("PingPongServer", pStr, 14))
 1023              		.loc 1 1306 0
 1024 0504 5948     		ldr	r0, .L160+80
 1025 0506 0131     		add	r1, r1, #1
 1026 0508 0E22     		mov	r2, #14
 1027 050a FFF7FEFF 		bl	strncmp
 1028 050e 0028     		cmp	r0, #0
 1029 0510 0CD1     		bne	.L118
1307:pong.c        ****                 foundBtUnits[i].active = TRUE;
 1030              		.loc 1 1307 0
 1031 0512 424A     		ldr	r2, .L160
 1032 0514 7B01     		lsl	r3, r7, #5
 1033 0516 9D54     		strb	r5, [r3, r2]
 1034 0518 08E0     		b	.L118
 1035              	.L111:
 1036              	.LBE2:
1308:pong.c        ****             }
1309:pong.c        ****           }
1310:pong.c        ****           recvPos = 0;
1311:pong.c        ****         }
1312:pong.c        ****         else if (recvPos < RECV_BUF_LEN)
 1037              		.loc 1 1312 0
 1038 051a 272E     		cmp	r6, #39
 1039 051c 04D8     		bhi	.L109
1313:pong.c        ****           recvBuf[recvPos++] = rxChar;
 1040              		.loc 1 1313 0
 1041 051e 04AB     		add	r3, sp, #16
 1042 0520 9855     		strb	r0, [r3, r6]
 1043 0522 731C     		add	r3, r6, #1
 1044 0524 1B06     		lsl	r3, r3, #24
 1045 0526 1E0E     		lsr	r6, r3, #24
 1046              	.L109:
 1047 0528 0024     		mov	r4, #0
 1048              	.LVL54:
 1049 052a 01E0     		b	.L117
 1050              	.LVL55:
 1051              	.L118:
 1052 052c 0024     		mov	r4, #0
 1053              	.LVL56:
ARM GAS  /cygdrive/c/DOCUME~1/mkwapisz/LOCALS~1/Temp/ccwCXJbO.s 			page 43


 1054              	.L157:
 1055 052e 0026     		mov	r6, #0
 1056              	.L117:
1314:pong.c        ****       }
1315:pong.c        ****       osSleep(1);
 1057              		.loc 1 1315 0
 1058 0530 0120     		mov	r0, #1
 1059 0532 FFF7FEFF 		bl	osSleep
1316:pong.c        ****       //print activity indicator
1317:pong.c        ****       lcdGotoxy(74,16);
 1060              		.loc 1 1317 0
 1061 0536 4A20     		mov	r0, #74
 1062 0538 1021     		mov	r1, #16
 1063 053a FFF7FEFF 		bl	lcdGotoxy
1318:pong.c        ****       lcdColor(0x00,0xfd);
 1064              		.loc 1 1318 0
 1065 053e 0020     		mov	r0, #0
 1066 0540 FD21     		mov	r1, #253
 1067 0542 FFF7FEFF 		bl	lcdColor
1319:pong.c        ****       switch(cnt % 150)
 1068              		.loc 1 1319 0
 1069 0546 0398     		ldr	r0, [sp, #12]
 1070 0548 9621     		mov	r1, #150
 1071 054a FFF7FEFF 		bl	__umodsi3
 1072 054e 3228     		cmp	r0, #50
 1073 0550 11D0     		beq	.L126
 1074 0552 3228     		cmp	r0, #50
 1075 0554 04D8     		bhi	.L130
 1076 0556 0028     		cmp	r0, #0
 1077 0558 09D0     		beq	.L124
 1078 055a 1928     		cmp	r0, #25
 1079 055c 14D1     		bne	.L123
 1080 055e 08E0     		b	.L125
 1081              	.L130:
 1082 0560 6428     		cmp	r0, #100
 1083 0562 0CD0     		beq	.L128
 1084 0564 7D28     		cmp	r0, #125
 1085 0566 0CD0     		beq	.L129
 1086 0568 4B28     		cmp	r0, #75
 1087 056a 0DD1     		bne	.L123
 1088 056c 05E0     		b	.L127
 1089              	.L124:
1320:pong.c        ****       {
1321:pong.c        ****         case   0: lcdPuts("   ");break;
 1090              		.loc 1 1321 0
 1091 056e 3448     		ldr	r0, .L160+36
 1092 0570 08E0     		b	.L158
 1093              	.L125:
1322:pong.c        ****         case  25: lcdPuts("*  ");break;
 1094              		.loc 1 1322 0
 1095 0572 3F48     		ldr	r0, .L160+84
 1096 0574 06E0     		b	.L158
 1097              	.L126:
1323:pong.c        ****         case  50: lcdPuts("** ");break;
 1098              		.loc 1 1323 0
 1099 0576 3F48     		ldr	r0, .L160+88
 1100 0578 04E0     		b	.L158
ARM GAS  /cygdrive/c/DOCUME~1/mkwapisz/LOCALS~1/Temp/ccwCXJbO.s 			page 44


 1101              	.L127:
1324:pong.c        ****         case  75: lcdPuts("***");break;
 1102              		.loc 1 1324 0
 1103 057a 3F48     		ldr	r0, .L160+92
 1104 057c 02E0     		b	.L158
 1105              	.L128:
1325:pong.c        ****         case 100: lcdPuts(" **");break;
 1106              		.loc 1 1325 0
 1107 057e 3F48     		ldr	r0, .L160+96
 1108 0580 00E0     		b	.L158
 1109              	.L129:
1326:pong.c        ****         case 125: lcdPuts("  *");break;
 1110              		.loc 1 1326 0
 1111 0582 3F48     		ldr	r0, .L160+100
 1112              	.L158:
 1113 0584 FFF7FEFF 		bl	lcdPuts
 1114              	.L123:
1327:pong.c        ****         default: break;
1328:pong.c        ****       }
1329:pong.c        ****       cnt++;
 1115              		.loc 1 1329 0
 1116 0588 039A     		ldr	r2, [sp, #12]
 1117 058a 0132     		add	r2, r2, #1
 1118 058c 0392     		str	r2, [sp, #12]
 1119              		.loc 1 1279 0
 1120 058e 002C     		cmp	r4, #0
 1121 0590 06D1     		bne	.L131
 1122              	.LVL57:
 1123              	.L107:
 1124 0592 274B     		ldr	r3, .L160+20
 1125 0594 1B68     		ldr	r3, [r3]
 1126 0596 0E9A     		ldr	r2, [sp, #56]
 1127 0598 9B1A     		sub	r3, r3, r2
 1128 059a 3A4A     		ldr	r2, .L160+104
 1129 059c 9342     		cmp	r3, r2
 1130 059e 82D9     		bls	.L108
 1131              	.L131:
 1132              		.loc 1 1269 0
 1133 05a0 7B1C     		add	r3, r7, #1
 1134 05a2 1B06     		lsl	r3, r3, #24
 1135 05a4 1F0E     		lsr	r7, r3, #24
 1136              	.L105:
 1137 05a6 029B     		ldr	r3, [sp, #8]
 1138 05a8 9F42     		cmp	r7, r3
 1139 05aa 00D0     		beq	.LCB1121
 1140 05ac 6AE7     		b	.L106	@long jump
 1141              	.LCB1121:
1330:pong.c        ****     }
1331:pong.c        ****   }
1332:pong.c        **** 
1333:pong.c        ****   lcdGotoxy(74,16);
 1142              		.loc 1 1333 0
 1143 05ae 4A20     		mov	r0, #74
 1144 05b0 1021     		mov	r1, #16
 1145 05b2 FFF7FEFF 		bl	lcdGotoxy
1334:pong.c        ****   lcdColor(0x00,0xfd);
 1146              		.loc 1 1334 0
ARM GAS  /cygdrive/c/DOCUME~1/mkwapisz/LOCALS~1/Temp/ccwCXJbO.s 			page 45


 1147 05b6 FD21     		mov	r1, #253
 1148 05b8 0020     		mov	r0, #0
 1149 05ba FFF7FEFF 		bl	lcdColor
1335:pong.c        ****   lcdPuts("-done");
 1150              		.loc 1 1335 0
 1151 05be 3248     		ldr	r0, .L160+108
 1152 05c0 FFF7FEFF 		bl	lcdPuts
1336:pong.c        **** 
1337:pong.c        ****   //*************************************************************
1338:pong.c        ****   //* Handle user key inputs (move between discovered units)
1339:pong.c        ****   //*************************************************************
1340:pong.c        ****   done = FALSE;
1341:pong.c        ****   cursorPos = 0;
1342:pong.c        ****   drawBtsFound(cursorPos);
 1153              		.loc 1 1342 0
 1154 05c4 0020     		mov	r0, #0
 1155 05c6 FFF7D1FD 		bl	drawBtsFound
 1156 05ca 0024     		mov	r4, #0
 1157              	.LVL58:
 1158              	.L133:
1343:pong.c        ****   while(done == FALSE)
1344:pong.c        ****   {
1345:pong.c        ****     anyKey = checkKey();
 1159              		.loc 1 1345 0
 1160 05cc FFF7FEFF 		bl	checkKey
 1161              	.LVL59:
1346:pong.c        ****     if (anyKey != KEY_NOTHING)
 1162              		.loc 1 1346 0
 1163 05d0 0028     		cmp	r0, #0
 1164 05d2 15D0     		beq	.L134
1347:pong.c        ****     {
1348:pong.c        ****       //exit and save new name
1349:pong.c        ****       if (anyKey == KEY_CENTER)
 1165              		.loc 1 1349 0
 1166 05d4 1028     		cmp	r0, #16
 1167 05d6 59D0     		beq	.L136
1350:pong.c        ****       {
1351:pong.c        ****         done = TRUE;
1352:pong.c        ****       }
1353:pong.c        **** 
1354:pong.c        ****       //
1355:pong.c        ****       else if (anyKey == KEY_UP)
 1168              		.loc 1 1355 0
 1169 05d8 0128     		cmp	r0, #1
 1170 05da 05D1     		bne	.L138
1356:pong.c        ****       {
1357:pong.c        ****         if (cursorPos > 0)
 1171              		.loc 1 1357 0
 1172 05dc 002C     		cmp	r4, #0
 1173 05de 01D1     		bne	.L140
 1174 05e0 0424     		mov	r4, #4
 1175 05e2 0AE0     		b	.L146
 1176              	.L140:
1358:pong.c        ****           cursorPos--;
 1177              		.loc 1 1358 0
 1178 05e4 631E     		sub	r3, r4, #1
 1179 05e6 06E0     		b	.L159
ARM GAS  /cygdrive/c/DOCUME~1/mkwapisz/LOCALS~1/Temp/ccwCXJbO.s 			page 46


 1180              	.L138:
1359:pong.c        ****         else
1360:pong.c        ****           cursorPos = MAX_BT_UNITS-1;
1361:pong.c        ****         drawBtsFound(cursorPos);
1362:pong.c        ****       }
1363:pong.c        ****       
1364:pong.c        ****       //
1365:pong.c        ****       else if (anyKey == KEY_DOWN)
 1181              		.loc 1 1365 0
 1182 05e8 0428     		cmp	r0, #4
 1183 05ea 09D1     		bne	.L134
1366:pong.c        ****       {
1367:pong.c        ****         if (cursorPos < MAX_BT_UNITS-1)
 1184              		.loc 1 1367 0
 1185 05ec 032C     		cmp	r4, #3
 1186 05ee 01D9     		bls	.L144
 1187 05f0 0024     		mov	r4, #0
 1188 05f2 02E0     		b	.L146
 1189              	.L144:
1368:pong.c        ****           cursorPos++;
 1190              		.loc 1 1368 0
 1191 05f4 631C     		add	r3, r4, #1
 1192              	.L159:
 1193 05f6 1B06     		lsl	r3, r3, #24
 1194 05f8 1C0E     		lsr	r4, r3, #24
 1195              	.L146:
1369:pong.c        ****         else
1370:pong.c        ****           cursorPos = 0;
1371:pong.c        ****           drawBtsFound(cursorPos);
 1196              		.loc 1 1371 0
 1197 05fa 201C     		mov	r0, r4
 1198              	.LVL60:
 1199 05fc FFF7B6FD 		bl	drawBtsFound
 1200              	.LVL61:
 1201              	.L134:
1372:pong.c        ****       }
1373:pong.c        ****     }
1374:pong.c        ****     osSleep(1);
 1202              		.loc 1 1374 0
 1203 0600 0120     		mov	r0, #1
 1204              	.LVL62:
 1205 0602 FFF7FEFF 		bl	osSleep
 1206 0606 E1E7     		b	.L133
 1207              	.L147:
1375:pong.c        ****   }
1376:pong.c        ****   
1377:pong.c        ****   if (foundBtUnits[cursorPos].active == TRUE)
1378:pong.c        ****   {
1379:pong.c        ****     strcpy(pBtAddr, foundBtUnits[cursorPos].btAddress);
 1208              		.loc 1 1379 0
 1209 0608 044B     		ldr	r3, .L160
 1210 060a 6101     		lsl	r1, r4, #5
 1211 060c C918     		add	r1, r1, r3
 1212 060e 0131     		add	r1, r1, #1
 1213 0610 0198     		ldr	r0, [sp, #4]
 1214 0612 FFF7FEFF 		bl	strcpy
 1215 0616 0120     		mov	r0, #1
ARM GAS  /cygdrive/c/DOCUME~1/mkwapisz/LOCALS~1/Temp/ccwCXJbO.s 			page 47


 1216 0618 41E0     		b	.L148
 1217              	.L161:
 1218 061a 0000     		.align	2
 1219              	.L160:
 1220 061c 0C000000 		.word	foundBtUnits
 1221 0620 0C000000 		.word	.LC22
 1222 0624 14000000 		.word	.LC24
 1223 0628 18000000 		.word	.LC26
 1224 062c 24000000 		.word	.LC28
 1225 0630 00000000 		.word	ms
 1226 0634 30000000 		.word	.LC31
 1227 0638 34000000 		.word	.LC33
 1228 063c 40000000 		.word	.LC35
 1229 0640 54000000 		.word	.LC37
 1230 0644 58000000 		.word	.LC39
 1231 0648 5C000000 		.word	.LC41
 1232 064c 60000000 		.word	.LC43
 1233 0650 64000000 		.word	.LC45
 1234 0654 68000000 		.word	.LC47
 1235 0658 63190000 		.word	6499
 1236 065c 6C000000 		.word	.LC49
 1237 0660 78000000 		.word	.LC51
 1238 0664 7C000000 		.word	.LC53
 1239 0668 90000000 		.word	.LC55
 1240 066c 9C000000 		.word	.LC57
 1241 0670 AC000000 		.word	.LC59
 1242 0674 B0000000 		.word	.LC61
 1243 0678 B4000000 		.word	.LC63
 1244 067c B8000000 		.word	.LC65
 1245 0680 BC000000 		.word	.LC67
 1246 0684 9F860100 		.word	99999
 1247 0688 C0000000 		.word	.LC69
 1248              	.LVL63:
 1249              	.L136:
 1250              		.loc 1 1374 0
 1251 068c 0120     		mov	r0, #1
 1252              	.LVL64:
 1253 068e FFF7FEFF 		bl	osSleep
 1254              		.loc 1 1377 0
 1255 0692 054B     		ldr	r3, .L162
 1256 0694 6201     		lsl	r2, r4, #5
 1257 0696 D35C     		ldrb	r3, [r2, r3]
 1258 0698 012B     		cmp	r3, #1
 1259 069a B5D0     		beq	.L147
 1260 069c 0020     		mov	r0, #0
 1261              	.L148:
1380:pong.c        ****     return TRUE;
1381:pong.c        ****   }
1382:pong.c        ****   else
1383:pong.c        ****     return FALSE;
1384:pong.c        **** }
 1262              		.loc 1 1384 0
 1263 069e 10B0     		add	sp, sp, #64
 1264              		@ sp needed for prologue
 1265              	.LVL65:
 1266              	.LVL66:
 1267              	.LVL67:
ARM GAS  /cygdrive/c/DOCUME~1/mkwapisz/LOCALS~1/Temp/ccwCXJbO.s 			page 48


 1268              	.LVL68:
 1269 06a0 F0BC     		pop	{r4, r5, r6, r7}
 1270 06a2 02BC     		pop	{r1}
 1271 06a4 0847     		bx	r1
 1272              	.L163:
 1273 06a6 0000     		.align	2
 1274              	.L162:
 1275 06a8 0C000000 		.word	foundBtUnits
 1276              	.LFE18:
 1277              		.size	searchServers, .-searchServers
 1278              		.align	2
 1279              		.code 16
 1280              		.thumb_func
 1281              		.type	displayMessage, %function
 1282              	displayMessage:
 1283              	.LFB8:
 1284              		.loc 1 493 0
 1285 06ac 30B5     		push	{r4, r5, lr}
 1286              	.LCFI11:
 1287              	.LVL69:
 1288              		.loc 1 493 0
 1289 06ae 0906     		lsl	r1, r1, #24
 1290              	.LVL70:
 1291 06b0 041C     		mov	r4, r0
 1292 06b2 0D0E     		lsr	r5, r1, #24
 1293              	.LVL71:
 1294 06b4 05E0     		b	.L165
 1295              	.LVL72:
 1296              	.L166:
 1297              		.loc 1 496 0
 1298 06b6 FFF7FEFF 		bl	lcdPutchar
 1299              		.loc 1 497 0
 1300 06ba 281C     		mov	r0, r5
 1301              		.loc 1 496 0
 1302 06bc 0134     		add	r4, r4, #1
 1303              		.loc 1 497 0
 1304 06be FFF7FEFF 		bl	osSleep
 1305              	.LVL73:
 1306              	.L165:
 1307              		.loc 1 494 0
 1308 06c2 2078     		ldrb	r0, [r4]
 1309 06c4 0028     		cmp	r0, #0
 1310 06c6 F6D1     		bne	.L166
 1311              		.loc 1 499 0
 1312              		@ sp needed for prologue
 1313              	.LVL74:
 1314              	.LVL75:
 1315 06c8 30BC     		pop	{r4, r5}
 1316 06ca 01BC     		pop	{r0}
 1317 06cc 0047     		bx	r0
 1318              	.LFE8:
 1319              		.size	displayMessage, .-displayMessage
 1320 06ce 0000     		.align	2
 1321              		.code 16
 1322              		.thumb_func
 1323              		.type	paintGame, %function
 1324              	paintGame:
ARM GAS  /cygdrive/c/DOCUME~1/mkwapisz/LOCALS~1/Temp/ccwCXJbO.s 			page 49


 1325              	.LFB4:
 1326              		.loc 1 230 0
 1327 06d0 00B5     		push	{lr}
 1328              	.LCFI12:
 1329 06d2 81B0     		sub	sp, sp, #4
 1330              	.LCFI13:
 1331              		.loc 1 232 0
 1332 06d4 0020     		mov	r0, #0
 1333 06d6 E021     		mov	r1, #224
 1334 06d8 FFF7FEFF 		bl	lcdColor
 1335              		.loc 1 233 0
 1336 06dc FFF7FEFF 		bl	lcdClrscr
 1337              		.loc 1 235 0
 1338 06e0 FFF778FD 		bl	paintScore
 1339              		.loc 1 237 0
 1340 06e4 FF23     		mov	r3, #255
 1341 06e6 0093     		str	r3, [sp]
 1342 06e8 0F21     		mov	r1, #15
 1343 06ea 8222     		mov	r2, #130
 1344 06ec 0123     		mov	r3, #1
 1345 06ee 0020     		mov	r0, #0
 1346 06f0 FFF7FEFF 		bl	lcdRect
 1347              		.loc 1 240 0
 1348 06f4 0448     		ldr	r0, .L171
 1349 06f6 FFF7C3FC 		bl	paintPlayer
 1350              		.loc 1 241 0
 1351 06fa 0448     		ldr	r0, .L171+4
 1352 06fc FFF7C0FC 		bl	paintPlayer
 1353              		.loc 1 242 0
 1354 0700 01B0     		add	sp, sp, #4
 1355              		@ sp needed for prologue
 1356 0702 01BC     		pop	{r0}
 1357 0704 0047     		bx	r0
 1358              	.L172:
 1359 0706 0000     		.align	2
 1360              	.L171:
 1361 0708 00000000 		.word	player1
 1362 070c 10000000 		.word	player2
 1363              	.LFE4:
 1364              		.size	paintGame, .-paintGame
 1365              		.global	__floatsidf
 1366              		.global	__adddf3
 1367              		.section	.rodata.str1.4
 1368 00c6 0000     		.align	2
 1369              	.LC88:
 1370 00c8 4E4F2043 		.ascii	"NO CARRIER\000"
 1370      41525249 
 1370      455200
 1371              		.global	__fixunsdfsi
 1372              		.text
 1373              		.align	2
 1374              		.code 16
 1375              		.thumb_func
 1376              		.type	btSendAndRecvStatus, %function
 1377              	btSendAndRecvStatus:
 1378              	.LFB16:
 1379              		.loc 1 1089 0
ARM GAS  /cygdrive/c/DOCUME~1/mkwapisz/LOCALS~1/Temp/ccwCXJbO.s 			page 50


 1380 0710 F0B5     		push	{r4, r5, r6, r7, lr}
 1381              	.LCFI14:
 1382              	.LVL76:
 1383 0712 89B0     		sub	sp, sp, #36
 1384              	.LCFI15:
 1385              		.loc 1 1089 0
 1386 0714 0006     		lsl	r0, r0, #24
 1387              	.LVL77:
 1388              	.LBB6:
 1389              		.loc 1 1030 0
 1390 0716 6C46     		mov	r4, sp
 1391              	.LBE6:
 1392              		.loc 1 1089 0
 1393 0718 000E     		lsr	r0, r0, #24
 1394 071a 0906     		lsl	r1, r1, #24
 1395              	.LVL78:
 1396              	.LBB7:
 1397              		.loc 1 1030 0
 1398 071c 2334     		add	r4, r4, #35
 1399              	.LBE7:
 1400              		.loc 1 1089 0
 1401 071e 0390     		str	r0, [sp, #12]
 1402              	.LVL79:
 1403 0720 090E     		lsr	r1, r1, #24
 1404              	.LBB8:
 1405              		.loc 1 1030 0
 1406 0722 201C     		mov	r0, r4
 1407              	.LBE8:
 1408              		.loc 1 1089 0
 1409 0724 0291     		str	r1, [sp, #8]
 1410              	.LVL80:
 1411              	.LBB9:
 1412              		.loc 1 1030 0
 1413 0726 FFF7FEFF 		bl	uart1GetChar
 1414              	.LBB10:
 1415 072a 0128     		cmp	r0, #1
 1416 072c 00D0     		beq	.LCB1406
 1417 072e 82E0     		b	.L174	@long jump
 1418              	.LCB1406:
 1419              	.LVL81:
 1420              		.loc 1 1032 0
 1421 0730 2078     		ldrb	r0, [r4]
 1422 0732 0A28     		cmp	r0, #10
 1423 0734 77D1     		bne	.L176
 1424              		.loc 1 1035 0
 1425 0736 6D4D     		ldr	r5, .L206
 1426 0738 2B78     		ldrb	r3, [r5]
 1427 073a 532B     		cmp	r3, #83
 1428 073c 57D1     		bne	.L178
 1429 073e 6C4B     		ldr	r3, .L206+4
 1430 0740 1B78     		ldrb	r3, [r3]
 1431 0742 0D2B     		cmp	r3, #13
 1432 0744 64D1     		bne	.L180
 1433              		.loc 1 1037 0
 1434 0746 6B4B     		ldr	r3, .L206+8
 1435 0748 1B78     		ldrb	r3, [r3]
 1436 074a 012B     		cmp	r3, #1
ARM GAS  /cygdrive/c/DOCUME~1/mkwapisz/LOCALS~1/Temp/ccwCXJbO.s 			page 51


 1437 074c 67D1     		bne	.L203
 1438              	.LBB11:
 1439              		.loc 1 1041 0
 1440 074e 6A4B     		ldr	r3, .L206+12
 1441 0750 681C     		add	r0, r5, #1
 1442 0752 191C     		mov	r1, r3
 1443 0754 0193     		str	r3, [sp, #4]
 1444 0756 FFF75FFC 		bl	decodeFromDigits
 1445              		.loc 1 1042 0
 1446 075a 684F     		ldr	r7, .L206+16
 1447              		.loc 1 1043 0
 1448 075c 08AE     		add	r6, sp, #32
 1449              		.loc 1 1042 0
 1450 075e 391C     		mov	r1, r7
 1451 0760 E81C     		add	r0, r5, #3
 1452 0762 FFF759FC 		bl	decodeFromDigits
 1453              		.loc 1 1043 0
 1454 0766 681D     		add	r0, r5, #5
 1455 0768 311C     		mov	r1, r6
 1456 076a FFF755FC 		bl	decodeFromDigits
 1457              		.loc 1 1044 0
 1458 076e 644B     		ldr	r3, .L206+20
 1459 0770 0093     		str	r3, [sp]
 1460              	.LVL82:
 1461 0772 0024     		mov	r4, #0
 1462 0774 3457     		ldrsb	r4, [r6, r4]
 1463 0776 201C     		mov	r0, r4
 1464 0778 FFF7FEFF 		bl	__floatsidf
 1465 077c 002C     		cmp	r4, #0
 1466 077e 03DA     		bge	.L184
 1467              	.LVL83:
 1468 0780 604A     		ldr	r2, .L206+24
 1469 0782 614B     		ldr	r3, .L206+28
 1470 0784 FFF7FEFF 		bl	__adddf3
 1471              	.L184:
 1472 0788 009B     		ldr	r3, [sp]
 1473 078a 5862     		str	r0, [r3, #36]
 1474 078c 9962     		str	r1, [r3, #40]
 1475              		.loc 1 1045 0
 1476 078e E81D     		add	r0, r5, #7
 1477 0790 311C     		mov	r1, r6
 1478 0792 FFF741FC 		bl	decodeFromDigits
 1479              		.loc 1 1046 0
 1480 0796 0024     		mov	r4, #0
 1481 0798 3457     		ldrsb	r4, [r6, r4]
 1482 079a 201C     		mov	r0, r4
 1483 079c FFF7FEFF 		bl	__floatsidf
 1484 07a0 002C     		cmp	r4, #0
 1485 07a2 03DA     		bge	.L185
 1486 07a4 574A     		ldr	r2, .L206+24
 1487 07a6 584B     		ldr	r3, .L206+28
 1488 07a8 FFF7FEFF 		bl	__adddf3
 1489              	.L185:
 1490 07ac 009B     		ldr	r3, [sp]
 1491              		.loc 1 1047 0
 1492 07ae 6C46     		mov	r4, sp
 1493              	.LVL84:
ARM GAS  /cygdrive/c/DOCUME~1/mkwapisz/LOCALS~1/Temp/ccwCXJbO.s 			page 52


 1494              		.loc 1 1046 0
 1495 07b0 D862     		str	r0, [r3, #44]
 1496 07b2 1963     		str	r1, [r3, #48]
 1497              		.loc 1 1047 0
 1498 07b4 2234     		add	r4, r4, #34
 1499 07b6 281C     		mov	r0, r5
 1500 07b8 211C     		mov	r1, r4
 1501 07ba 0930     		add	r0, r0, #9
 1502 07bc FFF72CFC 		bl	decodeFromDigits
 1503              		.loc 1 1048 0
 1504 07c0 281C     		mov	r0, r5
 1505 07c2 6D46     		mov	r5, sp
 1506 07c4 2135     		add	r5, r5, #33
 1507 07c6 291C     		mov	r1, r5
 1508 07c8 0B30     		add	r0, r0, #11
 1509 07ca FFF725FC 		bl	decodeFromDigits
 1510              		.loc 1 1050 0
 1511 07ce 0199     		ldr	r1, [sp, #4]
 1512 07d0 0139     		sub	r1, r1, #1
 1513              	.LVL85:
 1514 07d2 2078     		ldrb	r0, [r4]
 1515 07d4 CB78     		ldrb	r3, [r1, #3]
 1516 07d6 8342     		cmp	r3, r0
 1517 07d8 03D1     		bne	.L186
 1518 07da BA78     		ldrb	r2, [r7, #2]
 1519              	.LVL86:
 1520 07dc 2B78     		ldrb	r3, [r5]
 1521 07de 9A42     		cmp	r2, r3
 1522 07e0 1DD0     		beq	.L203
 1523              	.LVL87:
 1524              	.L186:
 1525              		.loc 1 1053 0
 1526 07e2 2B78     		ldrb	r3, [r5]
 1527              		.loc 1 1052 0
 1528 07e4 C870     		strb	r0, [r1, #3]
 1529              		.loc 1 1053 0
 1530 07e6 BB70     		strb	r3, [r7, #2]
 1531              		.loc 1 1054 0
 1532 07e8 FFF7F4FC 		bl	paintScore
 1533              	.LVL88:
 1534 07ec 17E0     		b	.L203
 1535              	.LVL89:
 1536              	.L178:
 1537              	.LBE11:
 1538              		.loc 1 1062 0
 1539 07ee 432B     		cmp	r3, #67
 1540 07f0 0ED1     		bne	.L180
 1541 07f2 3F4C     		ldr	r4, .L206+4
 1542 07f4 2378     		ldrb	r3, [r4]
 1543 07f6 032B     		cmp	r3, #3
 1544 07f8 0AD1     		bne	.L180
 1545              		.loc 1 1064 0
 1546 07fa 3E4B     		ldr	r3, .L206+8
 1547 07fc 1B78     		ldrb	r3, [r3]
 1548 07fe 022B     		cmp	r3, #2
 1549 0800 03D1     		bne	.L190
 1550              		.loc 1 1066 0
ARM GAS  /cygdrive/c/DOCUME~1/mkwapisz/LOCALS~1/Temp/ccwCXJbO.s 			page 53


 1551 0802 681C     		add	r0, r5, #1
 1552 0804 4149     		ldr	r1, .L206+32
 1553 0806 FFF707FC 		bl	decodeFromDigits
 1554              	.L190:
 1555              		.loc 1 1068 0
 1556 080a 0023     		mov	r3, #0
 1557 080c 2370     		strb	r3, [r4]
 1558 080e 12E0     		b	.L174
 1559              	.L180:
 1560              	.LBE10:
 1561              		.loc 1 1073 0
 1562 0810 3648     		ldr	r0, .L206
 1563 0812 3F49     		ldr	r1, .L206+36
 1564 0814 0A22     		mov	r2, #10
 1565 0816 FFF7FEFF 		bl	memcmp
 1566 081a 0028     		cmp	r0, #0
 1567 081c 61D0     		beq	.L194
 1568              	.LVL90:
 1569              	.L203:
 1570              	.LBB12:
 1571              		.loc 1 1077 0
 1572 081e 344A     		ldr	r2, .L206+4
 1573 0820 0023     		mov	r3, #0
 1574 0822 1370     		strb	r3, [r2]
 1575 0824 07E0     		b	.L174
 1576              	.LVL91:
 1577              	.L176:
 1578              		.loc 1 1079 0
 1579 0826 3249     		ldr	r1, .L206+4
 1580 0828 0A78     		ldrb	r2, [r1]
 1581 082a 272A     		cmp	r2, #39
 1582 082c 03D8     		bhi	.L174
 1583              		.loc 1 1080 0
 1584 082e 2F4B     		ldr	r3, .L206
 1585 0830 9854     		strb	r0, [r3, r2]
 1586 0832 531C     		add	r3, r2, #1
 1587 0834 0B70     		strb	r3, [r1]
 1588              	.LVL92:
 1589              	.L174:
 1590              	.LBE12:
 1591              	.LBE9:
 1592              		.loc 1 1095 0
 1593 0836 374B     		ldr	r3, .L206+40
 1594 0838 1A68     		ldr	r2, [r3]
 1595 083a 374B     		ldr	r3, .L206+44
 1596 083c 1B68     		ldr	r3, [r3]
 1597 083e 0F33     		add	r3, r3, #15
 1598 0840 9342     		cmp	r3, r2
 1599 0842 02D9     		bls	.L196
 1600 0844 029B     		ldr	r3, [sp, #8]
 1601 0846 002B     		cmp	r3, #0
 1602 0848 4AD0     		beq	.L205
 1603              	.L196:
 1604              		.loc 1 1100 0
 1605 084a 2A4B     		ldr	r3, .L206+8
 1606 084c 1B78     		ldrb	r3, [r3]
 1607 084e 6F46     		mov	r7, sp
ARM GAS  /cygdrive/c/DOCUME~1/mkwapisz/LOCALS~1/Temp/ccwCXJbO.s 			page 54


 1608 0850 6846     		mov	r0, sp
 1609 0852 1237     		add	r7, r7, #18
 1610 0854 1330     		add	r0, r0, #19
 1611 0856 022B     		cmp	r3, #2
 1612 0858 33D1     		bne	.L199
 1613              		.loc 1 1104 0
 1614 085a 5323     		mov	r3, #83
 1615 085c 3B70     		strb	r3, [r7]
 1616              		.loc 1 1105 0
 1617 085e 2F4E     		ldr	r6, .L206+48
 1618 0860 7178     		ldrb	r1, [r6, #1]
 1619 0862 FFF7CDFB 		bl	convertToDigits
 1620              		.loc 1 1106 0
 1621 0866 2E4D     		ldr	r5, .L206+52
 1622 0868 6846     		mov	r0, sp
 1623 086a 6978     		ldrb	r1, [r5, #1]
 1624 086c 1530     		add	r0, r0, #21
 1625 086e FFF7C7FB 		bl	convertToDigits
 1626              		.loc 1 1108 0
 1627 0872 234C     		ldr	r4, .L206+20
 1628 0874 2068     		ldr	r0, [r4]
 1629 0876 6168     		ldr	r1, [r4, #4]
 1630 0878 FFF7FEFF 		bl	floor
 1631 087c FFF7FEFF 		bl	__fixunsdfsi
 1632 0880 0106     		lsl	r1, r0, #24
 1633 0882 6846     		mov	r0, sp
 1634 0884 090E     		lsr	r1, r1, #24
 1635 0886 1730     		add	r0, r0, #23
 1636 0888 FFF7BAFB 		bl	convertToDigits
 1637              		.loc 1 1110 0
 1638 088c A068     		ldr	r0, [r4, #8]
 1639 088e E168     		ldr	r1, [r4, #12]
 1640 0890 FFF7FEFF 		bl	floor
 1641 0894 FFF7FEFF 		bl	__fixunsdfsi
 1642 0898 0106     		lsl	r1, r0, #24
 1643 089a 6846     		mov	r0, sp
 1644 089c 090E     		lsr	r1, r1, #24
 1645 089e 1930     		add	r0, r0, #25
 1646 08a0 FFF7AEFB 		bl	convertToDigits
 1647              		.loc 1 1111 0
 1648 08a4 6846     		mov	r0, sp
 1649 08a6 F178     		ldrb	r1, [r6, #3]
 1650 08a8 1B30     		add	r0, r0, #27
 1651 08aa FFF7A9FB 		bl	convertToDigits
 1652              		.loc 1 1112 0
 1653 08ae 6846     		mov	r0, sp
 1654 08b0 E978     		ldrb	r1, [r5, #3]
 1655 08b2 1D30     		add	r0, r0, #29
 1656 08b4 FFF7A4FB 		bl	convertToDigits
 1657              		.loc 1 1113 0
 1658 08b8 0A23     		mov	r3, #10
 1659              		.loc 1 1114 0
 1660 08ba 381C     		mov	r0, r7
 1661 08bc 0E21     		mov	r1, #14
 1662              		.loc 1 1113 0
 1663 08be 7B73     		strb	r3, [r7, #13]
 1664 08c0 08E0     		b	.L204
ARM GAS  /cygdrive/c/DOCUME~1/mkwapisz/LOCALS~1/Temp/ccwCXJbO.s 			page 55


 1665              	.L199:
 1666              		.loc 1 1120 0
 1667 08c2 4323     		mov	r3, #67
 1668 08c4 3B70     		strb	r3, [r7]
 1669              		.loc 1 1121 0
 1670 08c6 0399     		ldr	r1, [sp, #12]
 1671 08c8 FFF79AFB 		bl	convertToDigits
 1672              		.loc 1 1122 0
 1673 08cc 0A23     		mov	r3, #10
 1674 08ce FB70     		strb	r3, [r7, #3]
 1675              		.loc 1 1123 0
 1676 08d0 381C     		mov	r0, r7
 1677 08d2 0421     		mov	r1, #4
 1678              	.L204:
 1679 08d4 FFF7FEFF 		bl	uart1SendChars
 1680              		.loc 1 1126 0
 1681 08d8 0E4B     		ldr	r3, .L206+40
 1682 08da 1A68     		ldr	r2, [r3]
 1683 08dc 0E4B     		ldr	r3, .L206+44
 1684 08de 1A60     		str	r2, [r3]
 1685              	.L205:
 1686 08e0 0120     		mov	r0, #1
 1687              	.L194:
 1688              		.loc 1 1129 0
 1689 08e2 09B0     		add	sp, sp, #36
 1690              		@ sp needed for prologue
 1691 08e4 F0BC     		pop	{r4, r5, r6, r7}
 1692 08e6 02BC     		pop	{r1}
 1693 08e8 0847     		bx	r1
 1694              	.L207:
 1695 08ea 0000     		.align	2
 1696              	.L206:
 1697 08ec AE000000 		.word	recvBuf
 1698 08f0 AD000000 		.word	recvPos
 1699 08f4 AC000000 		.word	gameType
 1700 08f8 01000000 		.word	player1+1
 1701 08fc 11000000 		.word	player2+1
 1702 0900 28000000 		.word	ball
 1703 0904 00007040 		.word	1081081856
 1704 0908 00000000 		.word	0
 1705 090c 00000000 		.word	remoteClientKey
 1706 0910 C8000000 		.word	.LC88
 1707 0914 00000000 		.word	ms
 1708 0918 08000000 		.word	lastStatus
 1709 091c 00000000 		.word	player1
 1710 0920 10000000 		.word	player2
 1711              	.LFE16:
 1712              		.size	btSendAndRecvStatus, .-btSendAndRecvStatus
 1713              		.section	.rodata.str1.4
 1714 00d3 00       		.align	2
 1715              	.LC94:
 1716 00d4 54797065 		.ascii	"Type of Game?\000"
 1716      206F6620 
 1716      47616D65 
 1716      3F00
 1717 00e2 0000     		.align	2
 1718              	.LC96:
ARM GAS  /cygdrive/c/DOCUME~1/mkwapisz/LOCALS~1/Temp/ccwCXJbO.s 			page 56


 1719 00e4 53696E67 		.ascii	"Single player\000"
 1719      6C652070 
 1719      6C617965 
 1719      7200
 1720 00f2 0000     		.align	2
 1721              	.LC98:
 1722 00f4 4475616C 		.ascii	"Dual - Client\000"
 1722      202D2043 
 1722      6C69656E 
 1722      7400
 1723 0102 0000     		.align	2
 1724              	.LC100:
 1725 0104 4475616C 		.ascii	"Dual - Server\000"
 1725      202D2053 
 1725      65727665 
 1725      7200
 1726 0112 0000     		.align	2
 1727              	.LC103:
 1728 0114 436F6E6E 		.ascii	"Connecting\000"
 1728      65637469 
 1728      6E6700
 1729 011f 00       		.align	2
 1730              	.LC107:
 1731 0120 41542B42 		.ascii	"AT+BTCLT=\"\000"
 1731      54434C54 
 1731      3D2200
 1732 012b 00       		.align	2
 1733              	.LC109:
 1734 012c 222C3230 		.ascii	"\",20,3\015\000"
 1734      2C330D00 
 1735              		.align	2
 1736              	.LC115:
 1737 0134 434F4E4E 		.ascii	"CONNECT \000"
 1737      45435420 
 1737      00
 1738 013d 000000   		.align	2
 1739              	.LC124:
 1740 0140 4C455453 		.ascii	"LETS START PLAYING\000"
 1740      20535441 
 1740      52542050 
 1740      4C415949 
 1740      4E4700
 1741 0153 00       		.align	2
 1742              	.LC131:
 1743 0154 4661696C 		.ascii	"Failed to\000"
 1743      65642074 
 1743      6F00
 1744 015e 0000     		.align	2
 1745              	.LC133:
 1746 0160 636F6E6E 		.ascii	"connect...\000"
 1746      6563742E 
 1746      2E2E00
 1747 016b 00       		.align	2
 1748              	.LC135:
 1749 016c 57616974 		.ascii	"Waiting for\000"
 1749      696E6720 
 1749      666F7200 
ARM GAS  /cygdrive/c/DOCUME~1/mkwapisz/LOCALS~1/Temp/ccwCXJbO.s 			page 57


 1750              		.align	2
 1751              	.LC137:
 1752 0178 636C6965 		.ascii	"client conn\000"
 1752      6E742063 
 1752      6F6E6E00 
 1753              		.align	2
 1754              	.LC139:
 1755 0184 41542B42 		.ascii	"AT+BTSRV=20,\"PingPongServer\"\015\000"
 1755      54535256 
 1755      3D32302C 
 1755      2250696E 
 1755      67506F6E 
 1756 01a2 0000     		.align	2
 1757              	.LC141:
 1758 01a4 52657175 		.ascii	"Request from\000"
 1758      65737420 
 1758      66726F6D 
 1758      00
 1759 01b1 000000   		.align	2
 1760              	.LC143:
 1761 01b4 202000   		.ascii	"  \000"
 1762 01b7 00       		.align	2
 1763              	.LC145:
 1764 01b8 41636365 		.ascii	"Accept conn?\000"
 1764      70742063 
 1764      6F6E6E3F 
 1764      00
 1765 01c5 000000   		.align	2
 1766              	.LC147:
 1767 01c8 53746172 		.ascii	"Start playing\000"
 1767      7420706C 
 1767      6179696E 
 1767      6700
 1768 01d6 0000     		.align	2
 1769              	.LC149:
 1770 01d8 52656675 		.ascii	"Refuse\000"
 1770      736500
 1771 01df 00       		.align	2
 1772              	.LC151:
 1773 01e0 0A4C4554 		.ascii	"\012LETS START PLAYING\012\000"
 1773      53205354 
 1773      41525420 
 1773      504C4159 
 1773      494E470A 
 1774 01f5 000000   		.align	2
 1775              	.LC154:
 1776 01f8 4C6F7374 		.ascii	"Lost connection\000"
 1776      20636F6E 
 1776      6E656374 
 1776      696F6E00 
 1777              		.align	2
 1778              	.LC156:
 1779 0208 456E6420 		.ascii	"End game\000"
 1779      67616D65 
 1779      00
 1780              		.global	__subdf3
 1781              		.global	__nedf2
ARM GAS  /cygdrive/c/DOCUME~1/mkwapisz/LOCALS~1/Temp/ccwCXJbO.s 			page 58


 1782              		.global	__gtdf2
 1783              		.global	__gedf2
 1784              		.global	__ltdf2
 1785              		.global	__divdf3
 1786              		.global	__muldf3
 1787              		.global	__ledf2
 1788 0211 000000   		.align	2
 1789              	.LC163:
 1790 0214 47616D65 		.ascii	"Game over!\000"
 1790      206F7665 
 1790      722100
 1791 021f 00       		.align	2
 1792              	.LC165:
 1793 0220 52657374 		.ascii	"Restart game\000"
 1793      61727420 
 1793      67616D65 
 1793      00
 1794 022d 000000   		.align	2
 1795              	.LC167:
 1796 0230 45786974 		.ascii	"Exiting...\000"
 1796      696E672E 
 1796      2E2E00
 1797 023b 00       		.text
 1798              		.align	2
 1799              		.global	playPong
 1800              		.code 16
 1801              		.thumb_func
 1802              		.type	playPong, %function
 1803              	playPong:
 1804              	.LFB9:
 1805              		.loc 1 514 0
 1806 0924 F0B5     		push	{r4, r5, r6, r7, lr}
 1807              	.LCFI16:
 1808 0926 B3B0     		sub	sp, sp, #204
 1809              	.LCFI17:
 1810              		.loc 1 522 0
 1811 0928 FFF7FEFF 		bl	blockBtProc
 1812              		.loc 1 524 0
 1813 092c C94B     		ldr	r3, .L370
 1814 092e 0025     		mov	r5, #0
 1815 0930 DD70     		strb	r5, [r3, #3]
 1816              		.loc 1 525 0
 1817 0932 C94B     		ldr	r3, .L370+4
 1818 0934 DD70     		strb	r5, [r3, #3]
 1819              		.loc 1 526 0
 1820 0936 FFF7CBFE 		bl	paintGame
 1821              		.loc 1 529 0
 1822 093a 21A9     		add	r1, sp, #132
 1823 093c 0A23     		mov	r3, #10
 1824 093e 0B70     		strb	r3, [r1]
 1825              		.loc 1 530 0
 1826 0940 2823     		mov	r3, #40
 1827 0942 4B70     		strb	r3, [r1, #1]
 1828              		.loc 1 531 0
 1829 0944 6E23     		mov	r3, #110
 1830 0946 8B70     		strb	r3, [r1, #2]
 1831              		.loc 1 532 0
ARM GAS  /cygdrive/c/DOCUME~1/mkwapisz/LOCALS~1/Temp/ccwCXJbO.s 			page 59


 1832 0948 4623     		mov	r3, #70
 1833 094a CB70     		strb	r3, [r1, #3]
 1834              		.loc 1 533 0
 1835 094c 0323     		mov	r3, #3
 1836 094e 0B71     		strb	r3, [r1, #4]
 1837              		.loc 1 536 0
 1838 0950 0D23     		mov	r3, #13
 1839 0952 0B73     		strb	r3, [r1, #12]
 1840              		.loc 1 537 0
 1841 0954 C14B     		ldr	r3, .L370+8
 1842 0956 2593     		str	r3, [sp, #148]
 1843              		.loc 1 538 0
 1844 0958 C14B     		ldr	r3, .L370+12
 1845 095a 2693     		str	r3, [sp, #152]
 1846              		.loc 1 539 0
 1847 095c C14B     		ldr	r3, .L370+16
 1848 095e 2793     		str	r3, [sp, #156]
 1849              		.loc 1 540 0
 1850 0960 2BAB     		add	r3, sp, #172
 1851 0962 1D70     		strb	r5, [r3]
 1852              		.loc 1 541 0
 1853 0964 6D26     		mov	r6, #109
 1854 0966 0133     		add	r3, r3, #1
 1855 0968 1E70     		strb	r6, [r3]
 1856              		.loc 1 542 0
 1857 096a 0133     		add	r3, r3, #1
 1858 096c 1D70     		strb	r5, [r3]
 1859              		.loc 1 543 0
 1860 096e 0323     		mov	r3, #3
 1861              		.loc 1 534 0
 1862 0970 4D71     		strb	r5, [r1, #5]
 1863              		.loc 1 543 0
 1864 0972 5B42     		neg	r3, r3
 1865 0974 2B31     		add	r1, r1, #43
 1866 0976 0B70     		strb	r3, [r1]
 1867              		.loc 1 535 0
 1868 0978 BB4A     		ldr	r2, .L370+20
 1869              		.loc 1 544 0
 1870 097a 2023     		mov	r3, #32
 1871 097c 5B42     		neg	r3, r3
 1872 097e 2CA9     		add	r1, sp, #176
 1873 0980 0B70     		strb	r3, [r1]
 1874              		.loc 1 535 0
 1875 0982 2392     		str	r2, [sp, #140]
 1876              		.loc 1 546 0
 1877 0984 25AB     		add	r3, sp, #148
 1878 0986 6946     		mov	r1, sp
 1879 0988 91CB     		ldmia	r3!, {r0, r4, r7}
 1880 098a 91C1     		stmia	r1!, {r0, r4, r7}
 1881 098c 91CB     		ldmia	r3!, {r0, r4, r7}
 1882 098e 91C1     		stmia	r1!, {r0, r4, r7}
 1883 0990 11CB     		ldmia	r3!, {r0, r4}
 1884 0992 11C1     		stmia	r1!, {r0, r4}
 1885 0994 2198     		ldr	r0, [sp, #132]
 1886 0996 2299     		ldr	r1, [sp, #136]
 1887 0998 249B     		ldr	r3, [sp, #144]
 1888 099a FFF7FEFF 		bl	drawMenu
ARM GAS  /cygdrive/c/DOCUME~1/mkwapisz/LOCALS~1/Temp/ccwCXJbO.s 			page 60


 1889 099e 041C     		mov	r4, r0
 1890 09a0 0128     		cmp	r0, #1
 1891 09a2 0CD0     		beq	.L211
 1892 09a4 0128     		cmp	r0, #1
 1893 09a6 04D3     		bcc	.L210
 1894 09a8 0228     		cmp	r0, #2
 1895 09aa 01D0     		beq	.LCB1809
 1896 09ac 00F065FE 		bl	.L209	@far jump
 1897              	.LCB1809:
 1898 09b0 92E1     		b	.L212
 1899              	.L210:
 1900              		.loc 1 548 0
 1901 09b2 AE4B     		ldr	r3, .L370+24
 1902 09b4 1D70     		strb	r5, [r3]
 1903 09b6 0025     		mov	r5, #0
 1904 09b8 2095     		str	r5, [sp, #128]
 1905              	.LVL93:
 1906 09ba 00F066FE 		bl	.L360	@ far jump
 1907              	.LVL94:
 1908              	.L211:
 1909              		.loc 1 550 0
 1910 09be AB4B     		ldr	r3, .L370+24
 1911              		.loc 1 552 0
 1912 09c0 1021     		mov	r1, #16
 1913              		.loc 1 550 0
 1914 09c2 1870     		strb	r0, [r3]
 1915              		.loc 1 552 0
 1916 09c4 7D22     		mov	r2, #125
 1917 09c6 0220     		mov	r0, #2
 1918 09c8 5423     		mov	r3, #84
 1919 09ca 0096     		str	r6, [sp]
 1920              		.loc 1 557 0
 1921 09cc 6C46     		mov	r4, sp
 1922              		.loc 1 552 0
 1923 09ce FFF7FEFF 		bl	lcdRect
 1924              		.loc 1 553 0
 1925 09d2 0420     		mov	r0, #4
 1926 09d4 1221     		mov	r1, #18
 1927 09d6 7922     		mov	r2, #121
 1928 09d8 5023     		mov	r3, #80
 1929 09da 0095     		str	r5, [sp]
 1930              		.loc 1 557 0
 1931 09dc B734     		add	r4, r4, #183
 1932              		.loc 1 553 0
 1933 09de FFF7FEFF 		bl	lcdRect
 1934              		.loc 1 554 0
 1935 09e2 0020     		mov	r0, #0
 1936 09e4 FD21     		mov	r1, #253
 1937 09e6 FFF7FEFF 		bl	lcdColor
 1938              		.loc 1 557 0
 1939 09ea 201C     		mov	r0, r4
 1940 09ec FFF78AFC 		bl	searchServers
 1941 09f0 0128     		cmp	r0, #1
 1942 09f2 01D0     		beq	.LCB1858
 1943 09f4 00F044FE 		bl	.L214	@far jump
 1944              	.LCB1858:
 1945              		.loc 1 560 0
ARM GAS  /cygdrive/c/DOCUME~1/mkwapisz/LOCALS~1/Temp/ccwCXJbO.s 			page 61


 1946 09f8 0220     		mov	r0, #2
 1947 09fa 1021     		mov	r1, #16
 1948 09fc 7D22     		mov	r2, #125
 1949 09fe 5423     		mov	r3, #84
 1950 0a00 0096     		str	r6, [sp]
 1951 0a02 FFF7FEFF 		bl	lcdRect
 1952              		.loc 1 561 0
 1953 0a06 5023     		mov	r3, #80
 1954 0a08 7922     		mov	r2, #121
 1955 0a0a 0420     		mov	r0, #4
 1956 0a0c 1221     		mov	r1, #18
 1957 0a0e 0095     		str	r5, [sp]
 1958 0a10 FFF7FEFF 		bl	lcdRect
 1959              		.loc 1 562 0
 1960 0a14 0020     		mov	r0, #0
 1961 0a16 FD21     		mov	r1, #253
 1962 0a18 FFF7FEFF 		bl	lcdColor
 1963              		.loc 1 563 0
 1964 0a1c 1221     		mov	r1, #18
 1965 0a1e 0820     		mov	r0, #8
 1966 0a20 FFF7FEFF 		bl	lcdGotoxy
 1967              		.loc 1 564 0
 1968 0a24 9248     		ldr	r0, .L370+28
 1969 0a26 FFF7FEFF 		bl	lcdPuts
 1970              	.LBB25:
 1971              	.LBB26:
 1972              		.loc 1 862 0
 1973 0a2a 6420     		mov	r0, #100
 1974 0a2c FFF7FEFF 		bl	osSleep
 1975              		.loc 1 863 0
 1976 0a30 9048     		ldr	r0, .L370+32
 1977 0a32 FFF7FEFF 		bl	uart1SendString
 1978              		.loc 1 864 0
 1979 0a36 6420     		mov	r0, #100
 1980 0a38 FFF7FEFF 		bl	osSleep
 1981              		.loc 1 865 0
 1982 0a3c 8E48     		ldr	r0, .L370+36
 1983 0a3e FFF7FEFF 		bl	uart1SendString
 1984              		.loc 1 866 0
 1985 0a42 3220     		mov	r0, #50
 1986 0a44 FFF7FEFF 		bl	osSleep
 1987              		.loc 1 867 0
 1988 0a48 8C48     		ldr	r0, .L370+40
 1989 0a4a FFF7FEFF 		bl	uart1SendString
 1990              		.loc 1 868 0
 1991 0a4e 201C     		mov	r0, r4
 1992 0a50 FFF7FEFF 		bl	uart1SendString
 1993              		.loc 1 869 0
 1994 0a54 8A48     		ldr	r0, .L370+44
 1995 0a56 FFF7FEFF 		bl	uart1SendString
 1996              		.loc 1 870 0
 1997 0a5a 6420     		mov	r0, #100
 1998 0a5c FFF7FEFF 		bl	osSleep
 1999              		.loc 1 873 0
 2000 0a60 884B     		ldr	r3, .L370+48
 2001 0a62 1B68     		ldr	r3, [r3]
 2002 0a64 3193     		str	r3, [sp, #196]
ARM GAS  /cygdrive/c/DOCUME~1/mkwapisz/LOCALS~1/Temp/ccwCXJbO.s 			page 62


 2003              	.LVL95:
 2004              		.loc 1 875 0
 2005 0a66 884B     		ldr	r3, .L370+52
 2006 0a68 0026     		mov	r6, #0
 2007              	.LVL96:
 2008 0a6a 1D70     		strb	r5, [r3]
 2009 0a6c 65E0     		b	.L216
 2010              	.LVL97:
 2011              	.L217:
 2012              	.LBE26:
 2013              		.loc 1 879 0
 2014 0a6e 6C46     		mov	r4, sp
 2015              	.LVL98:
 2016 0a70 CB34     		add	r4, r4, #203
 2017 0a72 201C     		mov	r0, r4
 2018 0a74 FFF7FEFF 		bl	uart1GetChar
 2019              	.LBB27:
 2020 0a78 0128     		cmp	r0, #1
 2021 0a7a 2ED1     		bne	.L218
 2022              		.loc 1 881 0
 2023 0a7c 8348     		ldr	r0, .L370+56
 2024 0a7e 2178     		ldrb	r1, [r4]
 2025 0a80 FFF7FEFF 		bl	simplePrintf
 2026              		.loc 1 883 0
 2027 0a84 2078     		ldrb	r0, [r4]
 2028 0a86 804C     		ldr	r4, .L370+52
 2029 0a88 0A28     		cmp	r0, #10
 2030 0a8a 1FD1     		bne	.L220
 2031              		.loc 1 885 0
 2032 0a8c 2478     		ldrb	r4, [r4]
 2033 0a8e 002C     		cmp	r4, #0
 2034 0a90 04D0     		beq	.L222
 2035              		.loc 1 886 0
 2036 0a92 7F4B     		ldr	r3, .L370+60
 2037 0a94 E318     		add	r3, r4, r3
 2038 0a96 013B     		sub	r3, r3, #1
 2039 0a98 0022     		mov	r2, #0
 2040 0a9a 1A70     		strb	r2, [r3]
 2041              	.L222:
 2042              	.LBE27:
 2043              		.loc 1 889 0
 2044 0a9c 7C48     		ldr	r0, .L370+60
 2045 0a9e 7D49     		ldr	r1, .L370+64
 2046 0aa0 0822     		mov	r2, #8
 2047 0aa2 FFF7FEFF 		bl	memcmp
 2048 0aa6 0028     		cmp	r0, #0
 2049 0aa8 03D1     		bne	.L224
 2050              	.LBB28:
 2051 0aaa 152C     		cmp	r4, #21
 2052 0aac 01D1     		bne	.L224
 2053 0aae 0124     		mov	r4, #1
 2054              	.LVL99:
 2055 0ab0 08E0     		b	.L227
 2056              	.LVL100:
 2057              	.L224:
 2058              	.LBE28:
 2059              		.loc 1 893 0
ARM GAS  /cygdrive/c/DOCUME~1/mkwapisz/LOCALS~1/Temp/ccwCXJbO.s 			page 63


 2060 0ab2 7748     		ldr	r0, .L370+60
 2061 0ab4 7849     		ldr	r1, .L370+68
 2062 0ab6 0A22     		mov	r2, #10
 2063 0ab8 FFF7FEFF 		bl	memcmp
 2064 0abc 0028     		cmp	r0, #0
 2065 0abe 00D1     		bne	.LCB1986
 2066 0ac0 B1E0     		b	.L228	@long jump
 2067              	.LCB1986:
 2068 0ac2 0024     		mov	r4, #0
 2069              	.LVL101:
 2070              	.L227:
 2071              	.LBB29:
 2072              		.loc 1 897 0
 2073 0ac4 704A     		ldr	r2, .L370+52
 2074 0ac6 0023     		mov	r3, #0
 2075 0ac8 1370     		strb	r3, [r2]
 2076 0aca 07E0     		b	.L230
 2077              	.LVL102:
 2078              	.L220:
 2079              		.loc 1 899 0
 2080 0acc 2278     		ldrb	r2, [r4]
 2081 0ace 272A     		cmp	r2, #39
 2082 0ad0 03D8     		bhi	.L218
 2083              		.loc 1 900 0
 2084 0ad2 6F4B     		ldr	r3, .L370+60
 2085 0ad4 9854     		strb	r0, [r3, r2]
 2086 0ad6 531C     		add	r3, r2, #1
 2087 0ad8 2370     		strb	r3, [r4]
 2088              	.L218:
 2089 0ada 0024     		mov	r4, #0
 2090              	.LVL103:
 2091              	.L230:
 2092              		.loc 1 902 0
 2093 0adc 0120     		mov	r0, #1
 2094 0ade FFF7FEFF 		bl	osSleep
 2095              		.loc 1 905 0
 2096 0ae2 5820     		mov	r0, #88
 2097 0ae4 1221     		mov	r1, #18
 2098 0ae6 FFF7FEFF 		bl	lcdGotoxy
 2099              		.loc 1 906 0
 2100 0aea 0020     		mov	r0, #0
 2101 0aec FD21     		mov	r1, #253
 2102 0aee FFF7FEFF 		bl	lcdColor
 2103              		.loc 1 907 0
 2104 0af2 301C     		mov	r0, r6
 2105 0af4 9621     		mov	r1, #150
 2106 0af6 FFF7FEFF 		bl	__umodsi3
 2107 0afa 3228     		cmp	r0, #50
 2108 0afc 11D0     		beq	.L235
 2109 0afe 3228     		cmp	r0, #50
 2110 0b00 04D8     		bhi	.L239
 2111 0b02 0028     		cmp	r0, #0
 2112 0b04 09D0     		beq	.L233
 2113 0b06 1928     		cmp	r0, #25
 2114 0b08 14D1     		bne	.L232
 2115 0b0a 08E0     		b	.L234
 2116              	.L239:
ARM GAS  /cygdrive/c/DOCUME~1/mkwapisz/LOCALS~1/Temp/ccwCXJbO.s 			page 64


 2117 0b0c 6428     		cmp	r0, #100
 2118 0b0e 0CD0     		beq	.L237
 2119 0b10 7D28     		cmp	r0, #125
 2120 0b12 0CD0     		beq	.L238
 2121 0b14 4B28     		cmp	r0, #75
 2122 0b16 0DD1     		bne	.L232
 2123 0b18 05E0     		b	.L236
 2124              	.L233:
 2125              		.loc 1 909 0
 2126 0b1a 6048     		ldr	r0, .L370+72
 2127 0b1c 08E0     		b	.L362
 2128              	.L234:
 2129              		.loc 1 910 0
 2130 0b1e 6048     		ldr	r0, .L370+76
 2131 0b20 06E0     		b	.L362
 2132              	.L235:
 2133              		.loc 1 911 0
 2134 0b22 6048     		ldr	r0, .L370+80
 2135 0b24 04E0     		b	.L362
 2136              	.L236:
 2137              		.loc 1 912 0
 2138 0b26 6048     		ldr	r0, .L370+84
 2139 0b28 02E0     		b	.L362
 2140              	.L237:
 2141              		.loc 1 913 0
 2142 0b2a 6048     		ldr	r0, .L370+88
 2143 0b2c 00E0     		b	.L362
 2144              	.L238:
 2145              		.loc 1 914 0
 2146 0b2e 6048     		ldr	r0, .L370+92
 2147              	.L362:
 2148 0b30 FFF7FEFF 		bl	lcdPuts
 2149              	.L232:
 2150              		.loc 1 917 0
 2151 0b34 0136     		add	r6, r6, #1
 2152              		.loc 1 876 0
 2153 0b36 002C     		cmp	r4, #0
 2154 0b38 07D1     		bne	.L240
 2155              	.L216:
 2156 0b3a 524B     		ldr	r3, .L370+48
 2157 0b3c 1B68     		ldr	r3, [r3]
 2158 0b3e 319A     		ldr	r2, [sp, #196]
 2159 0b40 9B1A     		sub	r3, r3, r2
 2160 0b42 5C4A     		ldr	r2, .L370+96
 2161 0b44 9342     		cmp	r3, r2
 2162 0b46 92D9     		bls	.L217
 2163 0b48 6DE0     		b	.L228
 2164              	.L240:
 2165              		.loc 1 921 0
 2166 0b4a 012C     		cmp	r4, #1
 2167 0b4c 6BD1     		bne	.L228
 2168              		.loc 1 924 0
 2169 0b4e 4D4B     		ldr	r3, .L370+48
 2170 0b50 1B68     		ldr	r3, [r3]
 2171              		.loc 1 926 0
 2172 0b52 4D4A     		ldr	r2, .L370+52
 2173              		.loc 1 924 0
ARM GAS  /cygdrive/c/DOCUME~1/mkwapisz/LOCALS~1/Temp/ccwCXJbO.s 			page 65


 2174 0b54 3193     		str	r3, [sp, #196]
 2175              		.loc 1 926 0
 2176 0b56 0023     		mov	r3, #0
 2177 0b58 1370     		strb	r3, [r2]
 2178 0b5a 5DE0     		b	.L242
 2179              	.L243:
 2180              	.LBE29:
 2181              		.loc 1 930 0
 2182 0b5c 6C46     		mov	r4, sp
 2183              	.LVL104:
 2184 0b5e CB34     		add	r4, r4, #203
 2185 0b60 201C     		mov	r0, r4
 2186 0b62 FFF7FEFF 		bl	uart1GetChar
 2187              	.LBB30:
 2188 0b66 0128     		cmp	r0, #1
 2189 0b68 29D1     		bne	.L244
 2190              		.loc 1 932 0
 2191 0b6a 4848     		ldr	r0, .L370+56
 2192 0b6c 2178     		ldrb	r1, [r4]
 2193 0b6e FFF7FEFF 		bl	simplePrintf
 2194              		.loc 1 934 0
 2195 0b72 2078     		ldrb	r0, [r4]
 2196 0b74 444C     		ldr	r4, .L370+52
 2197 0b76 0A28     		cmp	r0, #10
 2198 0b78 1AD1     		bne	.L246
 2199              		.loc 1 936 0
 2200 0b7a 2278     		ldrb	r2, [r4]
 2201 0b7c 002A     		cmp	r2, #0
 2202 0b7e 04D0     		beq	.L248
 2203              		.loc 1 937 0
 2204 0b80 434B     		ldr	r3, .L370+60
 2205 0b82 D318     		add	r3, r2, r3
 2206 0b84 013B     		sub	r3, r3, #1
 2207 0b86 0022     		mov	r2, #0
 2208 0b88 1A70     		strb	r2, [r3]
 2209              	.L248:
 2210              	.LBE30:
 2211              		.loc 1 940 0
 2212 0b8a 414D     		ldr	r5, .L370+60
 2213 0b8c 4A49     		ldr	r1, .L370+100
 2214 0b8e 281C     		mov	r0, r5
 2215 0b90 1222     		mov	r2, #18
 2216 0b92 FFF7FEFF 		bl	memcmp
 2217 0b96 0028     		cmp	r0, #0
 2218 0b98 01D1     		bne	.LCB2165
 2219 0b9a 00F06EFD 		bl	.L209	@far jump
 2220              	.LCB2165:
 2221              		.loc 1 944 0
 2222 0b9e 3E49     		ldr	r1, .L370+68
 2223 0ba0 281C     		mov	r0, r5
 2224 0ba2 0A22     		mov	r2, #10
 2225 0ba4 FFF7FEFF 		bl	memcmp
 2226 0ba8 0028     		cmp	r0, #0
 2227 0baa 3CD0     		beq	.L228
 2228              	.LBB31:
 2229              		.loc 1 948 0
 2230 0bac 0023     		mov	r3, #0
ARM GAS  /cygdrive/c/DOCUME~1/mkwapisz/LOCALS~1/Temp/ccwCXJbO.s 			page 66


 2231 0bae 05E0     		b	.L363
 2232              	.L246:
 2233              		.loc 1 950 0
 2234 0bb0 2278     		ldrb	r2, [r4]
 2235 0bb2 272A     		cmp	r2, #39
 2236 0bb4 03D8     		bhi	.L244
 2237              		.loc 1 951 0
 2238 0bb6 364B     		ldr	r3, .L370+60
 2239 0bb8 9854     		strb	r0, [r3, r2]
 2240 0bba 531C     		add	r3, r2, #1
 2241              	.L363:
 2242 0bbc 2370     		strb	r3, [r4]
 2243              	.L244:
 2244              		.loc 1 953 0
 2245 0bbe 0120     		mov	r0, #1
 2246 0bc0 FFF7FEFF 		bl	osSleep
 2247              		.loc 1 956 0
 2248 0bc4 5820     		mov	r0, #88
 2249 0bc6 1221     		mov	r1, #18
 2250 0bc8 FFF7FEFF 		bl	lcdGotoxy
 2251              		.loc 1 957 0
 2252 0bcc 0020     		mov	r0, #0
 2253 0bce FD21     		mov	r1, #253
 2254 0bd0 FFF7FEFF 		bl	lcdColor
 2255              		.loc 1 958 0
 2256 0bd4 301C     		mov	r0, r6
 2257 0bd6 9621     		mov	r1, #150
 2258 0bd8 FFF7FEFF 		bl	__umodsi3
 2259 0bdc 3228     		cmp	r0, #50
 2260 0bde 11D0     		beq	.L256
 2261 0be0 3228     		cmp	r0, #50
 2262 0be2 04D8     		bhi	.L260
 2263 0be4 0028     		cmp	r0, #0
 2264 0be6 09D0     		beq	.L254
 2265 0be8 1928     		cmp	r0, #25
 2266 0bea 14D1     		bne	.L253
 2267 0bec 08E0     		b	.L255
 2268              	.L260:
 2269 0bee 6428     		cmp	r0, #100
 2270 0bf0 0CD0     		beq	.L258
 2271 0bf2 7D28     		cmp	r0, #125
 2272 0bf4 0CD0     		beq	.L259
 2273 0bf6 4B28     		cmp	r0, #75
 2274 0bf8 0DD1     		bne	.L253
 2275 0bfa 05E0     		b	.L257
 2276              	.L254:
 2277              		.loc 1 960 0
 2278 0bfc 2748     		ldr	r0, .L370+72
 2279 0bfe 08E0     		b	.L364
 2280              	.L255:
 2281              		.loc 1 961 0
 2282 0c00 2E48     		ldr	r0, .L370+104
 2283 0c02 06E0     		b	.L364
 2284              	.L256:
 2285              		.loc 1 962 0
 2286 0c04 2E48     		ldr	r0, .L370+108
 2287 0c06 04E0     		b	.L364
ARM GAS  /cygdrive/c/DOCUME~1/mkwapisz/LOCALS~1/Temp/ccwCXJbO.s 			page 67


 2288              	.L257:
 2289              		.loc 1 963 0
 2290 0c08 2E48     		ldr	r0, .L370+112
 2291 0c0a 02E0     		b	.L364
 2292              	.L258:
 2293              		.loc 1 964 0
 2294 0c0c 2E48     		ldr	r0, .L370+116
 2295 0c0e 00E0     		b	.L364
 2296              	.L259:
 2297              		.loc 1 965 0
 2298 0c10 2E48     		ldr	r0, .L370+120
 2299              	.L364:
 2300 0c12 FFF7FEFF 		bl	lcdPuts
 2301              	.L253:
 2302              		.loc 1 968 0
 2303 0c16 0136     		add	r6, r6, #1
 2304              	.LVL105:
 2305              	.L242:
 2306              		.loc 1 927 0
 2307 0c18 1A4B     		ldr	r3, .L370+48
 2308 0c1a 1B68     		ldr	r3, [r3]
 2309 0c1c 319A     		ldr	r2, [sp, #196]
 2310 0c1e 9B1A     		sub	r3, r3, r2
 2311 0c20 244A     		ldr	r2, .L370+96
 2312 0c22 9342     		cmp	r3, r2
 2313 0c24 9AD9     		bls	.L243
 2314              	.L228:
 2315              	.LBE31:
 2316              	.LBE25:
 2317              		.loc 1 571 0
 2318 0c26 0820     		mov	r0, #8
 2319 0c28 2021     		mov	r1, #32
 2320 0c2a FFF7FEFF 		bl	lcdGotoxy
 2321              		.loc 1 572 0
 2322 0c2e 2848     		ldr	r0, .L370+124
 2323 0c30 0321     		mov	r1, #3
 2324 0c32 FFF73BFD 		bl	displayMessage
 2325              		.loc 1 573 0
 2326 0c36 0820     		mov	r0, #8
 2327 0c38 2E21     		mov	r1, #46
 2328 0c3a FFF7FEFF 		bl	lcdGotoxy
 2329              		.loc 1 574 0
 2330 0c3e 2548     		ldr	r0, .L370+128
 2331 0c40 0321     		mov	r1, #3
 2332 0c42 FFF733FD 		bl	displayMessage
 2333              		.loc 1 575 0
 2334 0c46 9620     		mov	r0, #150
 2335 0c48 FFF7FEFF 		bl	osSleep
 2336 0c4c 0126     		mov	r6, #1
 2337              	.LVL106:
 2338 0c4e 2096     		str	r6, [sp, #128]
 2339              	.LVL107:
 2340 0c50 00F01BFD 		bl	.L360	@ far jump
 2341              	.L371:
 2342              		.align	2
 2343              	.L370:
 2344 0c54 00000000 		.word	player1
ARM GAS  /cygdrive/c/DOCUME~1/mkwapisz/LOCALS~1/Temp/ccwCXJbO.s 			page 68


 2345 0c58 10000000 		.word	player2
 2346 0c5c E4000000 		.word	.LC96
 2347 0c60 F4000000 		.word	.LC98
 2348 0c64 04010000 		.word	.LC100
 2349 0c68 D4000000 		.word	.LC94
 2350 0c6c AC000000 		.word	gameType
 2351 0c70 14010000 		.word	.LC103
 2352 0c74 14000000 		.word	.LC24
 2353 0c78 18000000 		.word	.LC26
 2354 0c7c 20010000 		.word	.LC107
 2355 0c80 2C010000 		.word	.LC109
 2356 0c84 00000000 		.word	ms
 2357 0c88 AD000000 		.word	recvPos
 2358 0c8c 30000000 		.word	.LC31
 2359 0c90 AE000000 		.word	recvBuf
 2360 0c94 34010000 		.word	.LC115
 2361 0c98 C8000000 		.word	.LC88
 2362 0c9c 54000000 		.word	.LC37
 2363 0ca0 58000000 		.word	.LC39
 2364 0ca4 5C000000 		.word	.LC41
 2365 0ca8 60000000 		.word	.LC43
 2366 0cac 64000000 		.word	.LC45
 2367 0cb0 68000000 		.word	.LC47
 2368 0cb4 0F270000 		.word	9999
 2369 0cb8 40010000 		.word	.LC124
 2370 0cbc AC000000 		.word	.LC59
 2371 0cc0 B0000000 		.word	.LC61
 2372 0cc4 B4000000 		.word	.LC63
 2373 0cc8 B8000000 		.word	.LC65
 2374 0ccc BC000000 		.word	.LC67
 2375 0cd0 54010000 		.word	.LC131
 2376 0cd4 60010000 		.word	.LC133
 2377              	.LVL108:
 2378              	.L212:
 2379              	.LBB32:
 2380              		.loc 1 591 0
 2381 0cd8 0220     		mov	r0, #2
 2382 0cda 1021     		mov	r1, #16
 2383 0cdc 7D22     		mov	r2, #125
 2384 0cde 5423     		mov	r3, #84
 2385 0ce0 0096     		str	r6, [sp]
 2386 0ce2 FFF7FEFF 		bl	lcdRect
 2387              		.loc 1 592 0
 2388 0ce6 7922     		mov	r2, #121
 2389 0ce8 5023     		mov	r3, #80
 2390 0cea 0420     		mov	r0, #4
 2391 0cec 1221     		mov	r1, #18
 2392 0cee 0095     		str	r5, [sp]
 2393 0cf0 FFF7FEFF 		bl	lcdRect
 2394              		.loc 1 593 0
 2395 0cf4 0020     		mov	r0, #0
 2396 0cf6 FD21     		mov	r1, #253
 2397 0cf8 FFF7FEFF 		bl	lcdColor
 2398              		.loc 1 594 0
 2399 0cfc 1221     		mov	r1, #18
 2400 0cfe 0820     		mov	r0, #8
 2401 0d00 FFF7FEFF 		bl	lcdGotoxy
ARM GAS  /cygdrive/c/DOCUME~1/mkwapisz/LOCALS~1/Temp/ccwCXJbO.s 			page 69


 2402              		.loc 1 595 0
 2403 0d04 D548     		ldr	r0, .L372
 2404 0d06 FFF7FEFF 		bl	lcdPuts
 2405              		.loc 1 596 0
 2406 0d0a 2021     		mov	r1, #32
 2407 0d0c 0820     		mov	r0, #8
 2408 0d0e FFF7FEFF 		bl	lcdGotoxy
 2409              		.loc 1 597 0
 2410 0d12 D348     		ldr	r0, .L372+4
 2411 0d14 FFF7FEFF 		bl	lcdPuts
 2412              		.loc 1 599 0
 2413 0d18 D24B     		ldr	r3, .L372+8
 2414              	.LBB33:
 2415              	.LBB34:
 2416              		.loc 1 799 0
 2417 0d1a 6420     		mov	r0, #100
 2418              	.LBE34:
 2419              	.LBE33:
 2420              		.loc 1 599 0
 2421 0d1c 1C70     		strb	r4, [r3]
 2422              	.LBB35:
 2423              	.LBB36:
 2424              		.loc 1 799 0
 2425 0d1e FFF7FEFF 		bl	osSleep
 2426              		.loc 1 800 0
 2427 0d22 D14F     		ldr	r7, .L372+12
 2428 0d24 381C     		mov	r0, r7
 2429 0d26 1197     		str	r7, [sp, #68]
 2430 0d28 FFF7FEFF 		bl	uart1SendString
 2431              		.loc 1 801 0
 2432 0d2c 6420     		mov	r0, #100
 2433 0d2e FFF7FEFF 		bl	osSleep
 2434              		.loc 1 802 0
 2435 0d32 CE48     		ldr	r0, .L372+16
 2436 0d34 FFF7FEFF 		bl	uart1SendString
 2437              		.loc 1 803 0
 2438 0d38 3220     		mov	r0, #50
 2439 0d3a FFF7FEFF 		bl	osSleep
 2440              		.loc 1 804 0
 2441 0d3e CC48     		ldr	r0, .L372+20
 2442 0d40 FFF7FEFF 		bl	uart1SendString
 2443              		.loc 1 805 0
 2444 0d44 CB4B     		ldr	r3, .L372+24
 2445 0d46 0020     		mov	r0, #0
 2446 0d48 1D70     		strb	r5, [r3]
 2447 0d4a 1090     		str	r0, [sp, #64]
 2448              	.LVL109:
 2449              	.LVL110:
 2450              	.L261:
 2451              	.LBE36:
 2452              	.LBE35:
 2453              		.loc 1 605 0
 2454 0d4c FFF7FEFF 		bl	checkKey
 2455              	.LBB37:
 2456              		.loc 1 818 0
 2457 0d50 6C46     		mov	r4, sp
 2458 0d52 CB34     		add	r4, r4, #203
ARM GAS  /cygdrive/c/DOCUME~1/mkwapisz/LOCALS~1/Temp/ccwCXJbO.s 			page 70


 2459              	.LBE37:
 2460              		.loc 1 605 0
 2461 0d54 071C     		mov	r7, r0
 2462              	.LBB38:
 2463              		.loc 1 818 0
 2464 0d56 201C     		mov	r0, r4
 2465 0d58 FFF7FEFF 		bl	uart1GetChar
 2466              	.LBB39:
 2467 0d5c 0128     		cmp	r0, #1
 2468 0d5e 01D0     		beq	.LCB2445
 2469 0d60 00F0B9FC 		bl	.L262	@far jump
 2470              	.LCB2445:
 2471              		.loc 1 820 0
 2472 0d64 C448     		ldr	r0, .L372+28
 2473 0d66 2178     		ldrb	r1, [r4]
 2474 0d68 FFF7FEFF 		bl	simplePrintf
 2475              		.loc 1 822 0
 2476 0d6c 2078     		ldrb	r0, [r4]
 2477 0d6e C14C     		ldr	r4, .L372+24
 2478 0d70 0A28     		cmp	r0, #10
 2479 0d72 71D1     		bne	.L264
 2480              		.loc 1 824 0
 2481 0d74 2578     		ldrb	r5, [r4]
 2482 0d76 002D     		cmp	r5, #0
 2483 0d78 04D0     		beq	.L266
 2484              		.loc 1 825 0
 2485 0d7a C04B     		ldr	r3, .L372+32
 2486 0d7c EB18     		add	r3, r5, r3
 2487 0d7e 013B     		sub	r3, r3, #1
 2488 0d80 0022     		mov	r2, #0
 2489 0d82 1A70     		strb	r2, [r3]
 2490              	.L266:
 2491              	.LBE39:
 2492              		.loc 1 828 0
 2493 0d84 BD4E     		ldr	r6, .L372+32
 2494 0d86 BE49     		ldr	r1, .L372+36
 2495 0d88 301C     		mov	r0, r6
 2496 0d8a 0822     		mov	r2, #8
 2497 0d8c FFF7FEFF 		bl	memcmp
 2498 0d90 0028     		cmp	r0, #0
 2499 0d92 5CD1     		bne	.L268
 2500              	.LBB40:
 2501 0d94 152D     		cmp	r5, #21
 2502 0d96 5AD1     		bne	.L268
 2503              		.loc 1 830 0
 2504 0d98 2070     		strb	r0, [r4]
 2505 0d9a 0022     		mov	r2, #0
 2506 0d9c 301C     		mov	r0, r6
 2507              	.L271:
 2508              		.loc 1 832 0
 2509 0d9e 1318     		add	r3, r2, r0
 2510 0da0 6D46     		mov	r5, sp
 2511 0da2 1B7A     		ldrb	r3, [r3, #8]
 2512 0da4 B735     		add	r5, r5, #183
 2513 0da6 5355     		strb	r3, [r2, r5]
 2514 0da8 0132     		add	r2, r2, #1
 2515              		.loc 1 830 0
ARM GAS  /cygdrive/c/DOCUME~1/mkwapisz/LOCALS~1/Temp/ccwCXJbO.s 			page 71


 2516 0daa 0C2A     		cmp	r2, #12
 2517 0dac F7D1     		bne	.L271
 2518 0dae B14A     		ldr	r2, .L372+24
 2519 0db0 0C23     		mov	r3, #12
 2520 0db2 1370     		strb	r3, [r2]
 2521              		.loc 1 835 0
 2522 0db4 6B46     		mov	r3, sp
 2523              	.LVL111:
 2524 0db6 C333     		add	r3, r3, #195
 2525 0db8 0024     		mov	r4, #0
 2526 0dba 1C70     		strb	r4, [r3]
 2527              	.LBE40:
 2528              	.LBE38:
 2529              		.loc 1 610 0
 2530 0dbc 1221     		mov	r1, #18
 2531 0dbe 0820     		mov	r0, #8
 2532 0dc0 FFF7FEFF 		bl	lcdGotoxy
 2533              	.LVL112:
 2534              		.loc 1 611 0
 2535 0dc4 AF48     		ldr	r0, .L372+40
 2536 0dc6 FFF7FEFF 		bl	lcdPuts
 2537              		.loc 1 612 0
 2538 0dca 2021     		mov	r1, #32
 2539 0dcc 0820     		mov	r0, #8
 2540 0dce FFF7FEFF 		bl	lcdGotoxy
 2541              		.loc 1 613 0
 2542 0dd2 281C     		mov	r0, r5
 2543 0dd4 FFF7FEFF 		bl	lcdPuts
 2544              		.loc 1 614 0
 2545 0dd8 AB48     		ldr	r0, .L372+44
 2546 0dda FFF7FEFF 		bl	lcdPuts
 2547              		.loc 1 617 0
 2548 0dde 21A9     		add	r1, sp, #132
 2549 0de0 0A23     		mov	r3, #10
 2550 0de2 0B70     		strb	r3, [r1]
 2551              		.loc 1 618 0
 2552 0de4 3223     		mov	r3, #50
 2553 0de6 4B70     		strb	r3, [r1, #1]
 2554              		.loc 1 619 0
 2555 0de8 6E23     		mov	r3, #110
 2556 0dea 8B70     		strb	r3, [r1, #2]
 2557              		.loc 1 620 0
 2558 0dec 4623     		mov	r3, #70
 2559 0dee CB70     		strb	r3, [r1, #3]
 2560              		.loc 1 621 0
 2561 0df0 0223     		mov	r3, #2
 2562 0df2 0B71     		strb	r3, [r1, #4]
 2563              		.loc 1 624 0
 2564 0df4 1123     		mov	r3, #17
 2565 0df6 0B73     		strb	r3, [r1, #12]
 2566              		.loc 1 625 0
 2567 0df8 A44B     		ldr	r3, .L372+48
 2568 0dfa 2593     		str	r3, [sp, #148]
 2569              		.loc 1 626 0
 2570 0dfc A44B     		ldr	r3, .L372+52
 2571 0dfe 2693     		str	r3, [sp, #152]
 2572              		.loc 1 627 0
ARM GAS  /cygdrive/c/DOCUME~1/mkwapisz/LOCALS~1/Temp/ccwCXJbO.s 			page 72


 2573 0e00 2BAB     		add	r3, sp, #172
 2574              		.loc 1 622 0
 2575 0e02 4C71     		strb	r4, [r1, #5]
 2576              		.loc 1 627 0
 2577 0e04 1C70     		strb	r4, [r3]
 2578              		.loc 1 628 0
 2579 0e06 6D21     		mov	r1, #109
 2580 0e08 0133     		add	r3, r3, #1
 2581 0e0a 1970     		strb	r1, [r3]
 2582              		.loc 1 629 0
 2583 0e0c 0133     		add	r3, r3, #1
 2584 0e0e 1C70     		strb	r4, [r3]
 2585              		.loc 1 630 0
 2586 0e10 6946     		mov	r1, sp
 2587 0e12 0323     		mov	r3, #3
 2588 0e14 5B42     		neg	r3, r3
 2589 0e16 AF31     		add	r1, r1, #175
 2590 0e18 0B70     		strb	r3, [r1]
 2591              		.loc 1 623 0
 2592 0e1a 9E4A     		ldr	r2, .L372+56
 2593              		.loc 1 631 0
 2594 0e1c 2023     		mov	r3, #32
 2595 0e1e 5B42     		neg	r3, r3
 2596 0e20 2CA9     		add	r1, sp, #176
 2597 0e22 0B70     		strb	r3, [r1]
 2598              		.loc 1 623 0
 2599 0e24 2392     		str	r2, [sp, #140]
 2600              		.loc 1 633 0
 2601 0e26 25AB     		add	r3, sp, #148
 2602 0e28 6946     		mov	r1, sp
 2603 0e2a 70CB     		ldmia	r3!, {r4, r5, r6}
 2604 0e2c 70C1     		stmia	r1!, {r4, r5, r6}
 2605 0e2e 91CB     		ldmia	r3!, {r0, r4, r7}
 2606 0e30 91C1     		stmia	r1!, {r0, r4, r7}
 2607              	.LVL113:
 2608 0e32 60CB     		ldmia	r3!, {r5, r6}
 2609 0e34 60C1     		stmia	r1!, {r5, r6}
 2610 0e36 2198     		ldr	r0, [sp, #132]
 2611 0e38 2299     		ldr	r1, [sp, #136]
 2612 0e3a 249B     		ldr	r3, [sp, #144]
 2613 0e3c FFF7FEFF 		bl	drawMenu
 2614 0e40 0028     		cmp	r0, #0
 2615 0e42 14D0     		beq	.L273
 2616 0e44 0128     		cmp	r0, #1
 2617 0e46 01D0     		beq	.LCB2593
 2618 0e48 00F017FC 		bl	.L209	@far jump
 2619              	.LCB2593:
 2620 0e4c 16E0     		b	.L274
 2621              	.LVL114:
 2622              	.L268:
 2623              	.LBB41:
 2624              	.LBB42:
 2625              		.loc 1 839 0
 2626 0e4e 894A     		ldr	r2, .L372+24
 2627 0e50 0023     		mov	r3, #0
 2628 0e52 1370     		strb	r3, [r2]
 2629 0e54 00F03FFC 		bl	.L262	@ far jump
ARM GAS  /cygdrive/c/DOCUME~1/mkwapisz/LOCALS~1/Temp/ccwCXJbO.s 			page 73


 2630              	.L264:
 2631              		.loc 1 841 0
 2632 0e58 2278     		ldrb	r2, [r4]
 2633 0e5a 272A     		cmp	r2, #39
 2634 0e5c 01D9     		bls	.LCB2612
 2635 0e5e 00F03AFC 		bl	.L262	@far jump
 2636              	.LCB2612:
 2637              		.loc 1 842 0
 2638 0e62 864B     		ldr	r3, .L372+32
 2639 0e64 9854     		strb	r0, [r3, r2]
 2640 0e66 531C     		add	r3, r2, #1
 2641 0e68 2370     		strb	r3, [r4]
 2642 0e6a 00F034FC 		bl	.L262	@ far jump
 2643              	.LVL115:
 2644              	.L273:
 2645              	.LBE42:
 2646              	.LBE41:
 2647              		.loc 1 635 0
 2648 0e6e 8A48     		ldr	r0, .L372+60
 2649 0e70 FFF7FEFF 		bl	uart1SendString
 2650 0e74 0027     		mov	r7, #0
 2651 0e76 2097     		str	r7, [sp, #128]
 2652              	.LVL116:
 2653 0e78 00F007FC 		bl	.L360	@ far jump
 2654              	.LVL117:
 2655              	.L274:
 2656              		.loc 1 636 0
 2657 0e7c 1198     		ldr	r0, [sp, #68]
 2658 0e7e FFF7FEFF 		bl	uart1SendString
 2659 0e82 0120     		mov	r0, #1
 2660 0e84 00F0FAFB 		bl	.L369	@ far jump
 2661              	.LVL118:
 2662              	.L361:
 2663              		.loc 1 653 0
 2664 0e88 6020     		mov	r0, #96
 2665 0e8a 1E21     		mov	r1, #30
 2666 0e8c FFF7FEFF 		bl	lcdGotoxy
 2667              		.loc 1 654 0
 2668 0e90 0020     		mov	r0, #0
 2669 0e92 FD21     		mov	r1, #253
 2670 0e94 FFF7FEFF 		bl	lcdColor
 2671              		.loc 1 655 0
 2672 0e98 1098     		ldr	r0, [sp, #64]
 2673 0e9a 9621     		mov	r1, #150
 2674 0e9c FFF7FEFF 		bl	__umodsi3
 2675 0ea0 3228     		cmp	r0, #50
 2676 0ea2 11D0     		beq	.L280
 2677 0ea4 3228     		cmp	r0, #50
 2678 0ea6 04D8     		bhi	.L284
 2679 0ea8 0028     		cmp	r0, #0
 2680 0eaa 09D0     		beq	.L278
 2681 0eac 1928     		cmp	r0, #25
 2682 0eae 14D1     		bne	.L277
 2683 0eb0 08E0     		b	.L279
 2684              	.L284:
 2685 0eb2 6428     		cmp	r0, #100
 2686 0eb4 0CD0     		beq	.L282
ARM GAS  /cygdrive/c/DOCUME~1/mkwapisz/LOCALS~1/Temp/ccwCXJbO.s 			page 74


 2687 0eb6 7D28     		cmp	r0, #125
 2688 0eb8 0CD0     		beq	.L283
 2689 0eba 4B28     		cmp	r0, #75
 2690 0ebc 0DD1     		bne	.L277
 2691 0ebe 05E0     		b	.L281
 2692              	.L278:
 2693              		.loc 1 657 0
 2694 0ec0 7648     		ldr	r0, .L372+64
 2695 0ec2 08E0     		b	.L365
 2696              	.L279:
 2697              		.loc 1 658 0
 2698 0ec4 7648     		ldr	r0, .L372+68
 2699 0ec6 06E0     		b	.L365
 2700              	.L280:
 2701              		.loc 1 659 0
 2702 0ec8 7648     		ldr	r0, .L372+72
 2703 0eca 04E0     		b	.L365
 2704              	.L281:
 2705              		.loc 1 660 0
 2706 0ecc 7648     		ldr	r0, .L372+76
 2707 0ece 02E0     		b	.L365
 2708              	.L282:
 2709              		.loc 1 661 0
 2710 0ed0 7648     		ldr	r0, .L372+80
 2711 0ed2 00E0     		b	.L365
 2712              	.L283:
 2713              		.loc 1 662 0
 2714 0ed4 7648     		ldr	r0, .L372+84
 2715              	.L365:
 2716 0ed6 FFF7FEFF 		bl	lcdPuts
 2717              	.L277:
 2718              		.loc 1 665 0
 2719 0eda 1099     		ldr	r1, [sp, #64]
 2720              		.loc 1 666 0
 2721 0edc 0120     		mov	r0, #1
 2722              		.loc 1 665 0
 2723 0ede 0131     		add	r1, r1, #1
 2724 0ee0 1091     		str	r1, [sp, #64]
 2725              		.loc 1 666 0
 2726 0ee2 FFF7FEFF 		bl	osSleep
 2727 0ee6 31E7     		b	.L261
 2728              	.LVL119:
 2729              	.L285:
 2730              	.LBE32:
 2731              		.loc 1 676 0
 2732 0ee8 20AA     		add	r2, sp, #128
 2733 0eea 1278     		ldrb	r2, [r2]
 2734 0eec 7148     		ldr	r0, .L372+88
 2735              		.loc 1 677 0
 2736 0eee 724B     		ldr	r3, .L372+92
 2737              		.loc 1 676 0
 2738 0ef0 C270     		strb	r2, [r0, #3]
 2739              		.loc 1 677 0
 2740 0ef2 DA70     		strb	r2, [r3, #3]
 2741              		.loc 1 681 0
 2742 0ef4 0025     		mov	r5, #0
 2743              		.loc 1 680 0
ARM GAS  /cygdrive/c/DOCUME~1/mkwapisz/LOCALS~1/Temp/ccwCXJbO.s 			page 75


 2744 0ef6 FFF7D1F9 		bl	startNewServ
 2745              		.loc 1 681 0
 2746 0efa FFF7E9FB 		bl	paintGame
 2747 0efe 0F95     		str	r5, [sp, #60]
 2748              	.LVL120:
 2749              	.L286:
 2750              	.LBB43:
 2751              		.loc 1 685 0
 2752 0f00 FFF7FEFF 		bl	checkKey2
 2753              		.loc 1 687 0
 2754 0f04 574B     		ldr	r3, .L372+8
 2755              		.loc 1 685 0
 2756 0f06 6946     		mov	r1, sp
 2757              		.loc 1 687 0
 2758 0f08 1B78     		ldrb	r3, [r3]
 2759              		.loc 1 685 0
 2760 0f0a CB31     		add	r1, r1, #203
 2761 0f0c 0870     		strb	r0, [r1]
 2762              		.loc 1 687 0
 2763 0f0e 002B     		cmp	r3, #0
 2764 0f10 0DD1     		bne	.L287
 2765              	.LVL121:
 2766              		.loc 1 689 0
 2767 0f12 0A78     		ldrb	r2, [r1]
 2768 0f14 674B     		ldr	r3, .L372+88
 2769 0f16 1A73     		strb	r2, [r3, #12]
 2770              		.loc 1 690 0
 2771 0f18 0A78     		ldrb	r2, [r1]
 2772 0f1a 674B     		ldr	r3, .L372+92
 2773 0f1c 1A73     		strb	r2, [r3, #12]
 2774              		.loc 1 691 0
 2775 0f1e 674B     		ldr	r3, .L372+96
 2776 0f20 0978     		ldrb	r1, [r1]
 2777 0f22 1868     		ldr	r0, [r3]
 2778 0f24 FFF7BCF8 		bl	movePlayer
 2779 0f28 0026     		mov	r6, #0
 2780              	.LVL122:
 2781 0f2a 0E96     		str	r6, [sp, #56]
 2782 0f2c 58E0     		b	.L289
 2783              	.LVL123:
 2784              	.L287:
 2785              		.loc 1 696 0
 2786 0f2e 0878     		ldrb	r0, [r1]
 2787 0f30 0021     		mov	r1, #0
 2788 0f32 FFF7EDFB 		bl	btSendAndRecvStatus
 2789 0f36 0028     		cmp	r0, #0
 2790 0f38 01D0     		beq	.L290
 2791 0f3a 0027     		mov	r7, #0
 2792              	.LVL124:
 2793 0f3c 35E0     		b	.L366
 2794              	.LVL125:
 2795              	.L290:
 2796              		.loc 1 700 0
 2797 0f3e 21A9     		add	r1, sp, #132
 2798 0f40 0223     		mov	r3, #2
 2799 0f42 0B70     		strb	r3, [r1]
 2800              		.loc 1 701 0
ARM GAS  /cygdrive/c/DOCUME~1/mkwapisz/LOCALS~1/Temp/ccwCXJbO.s 			page 76


 2801 0f44 2823     		mov	r3, #40
 2802 0f46 4B70     		strb	r3, [r1, #1]
 2803              		.loc 1 702 0
 2804 0f48 7E23     		mov	r3, #126
 2805 0f4a 8B70     		strb	r3, [r1, #2]
 2806              		.loc 1 703 0
 2807 0f4c 2A23     		mov	r3, #42
 2808 0f4e CB70     		strb	r3, [r1, #3]
 2809              		.loc 1 704 0
 2810 0f50 0123     		mov	r3, #1
 2811 0f52 0B71     		strb	r3, [r1, #4]
 2812              		.loc 1 707 0
 2813 0f54 0423     		mov	r3, #4
 2814 0f56 0B73     		strb	r3, [r1, #12]
 2815              		.loc 1 708 0
 2816 0f58 594B     		ldr	r3, .L372+100
 2817 0f5a 2593     		str	r3, [sp, #148]
 2818              		.loc 1 709 0
 2819 0f5c 2BAB     		add	r3, sp, #172
 2820              		.loc 1 705 0
 2821 0f5e 4871     		strb	r0, [r1, #5]
 2822              		.loc 1 709 0
 2823 0f60 1870     		strb	r0, [r3]
 2824              		.loc 1 710 0
 2825 0f62 6D21     		mov	r1, #109
 2826 0f64 0133     		add	r3, r3, #1
 2827 0f66 1970     		strb	r1, [r3]
 2828              		.loc 1 711 0
 2829 0f68 0133     		add	r3, r3, #1
 2830 0f6a 1870     		strb	r0, [r3]
 2831              		.loc 1 712 0
 2832 0f6c 6946     		mov	r1, sp
 2833 0f6e 0323     		mov	r3, #3
 2834 0f70 5B42     		neg	r3, r3
 2835 0f72 AF31     		add	r1, r1, #175
 2836 0f74 0B70     		strb	r3, [r1]
 2837              		.loc 1 706 0
 2838 0f76 534A     		ldr	r2, .L372+104
 2839              		.loc 1 713 0
 2840 0f78 2023     		mov	r3, #32
 2841 0f7a 5B42     		neg	r3, r3
 2842 0f7c 2CA9     		add	r1, sp, #176
 2843 0f7e 0B70     		strb	r3, [r1]
 2844              		.loc 1 706 0
 2845 0f80 2392     		str	r2, [sp, #140]
 2846              		.loc 1 715 0
 2847 0f82 25AB     		add	r3, sp, #148
 2848 0f84 6946     		mov	r1, sp
 2849 0f86 31CB     		ldmia	r3!, {r0, r4, r5}
 2850 0f88 31C1     		stmia	r1!, {r0, r4, r5}
 2851              	.LVL126:
 2852 0f8a C1CB     		ldmia	r3!, {r0, r6, r7}
 2853 0f8c C1C1     		stmia	r1!, {r0, r6, r7}
 2854              	.LVL127:
 2855 0f8e 30CB     		ldmia	r3!, {r4, r5}
 2856 0f90 30C1     		stmia	r1!, {r4, r5}
 2857 0f92 2198     		ldr	r0, [sp, #132]
ARM GAS  /cygdrive/c/DOCUME~1/mkwapisz/LOCALS~1/Temp/ccwCXJbO.s 			page 77


 2858 0f94 2299     		ldr	r1, [sp, #136]
 2859 0f96 249B     		ldr	r3, [sp, #144]
 2860 0f98 FFF7FEFF 		bl	drawMenu
 2861 0f9c 0028     		cmp	r0, #0
 2862 0f9e 03D1     		bne	.L293
 2863 0fa0 0126     		mov	r6, #1
 2864 0fa2 0E96     		str	r6, [sp, #56]
 2865 0fa4 0F96     		str	r6, [sp, #60]
 2866 0fa6 01E0     		b	.L292
 2867              	.L293:
 2868 0fa8 0127     		mov	r7, #1
 2869              	.LVL128:
 2870              	.L366:
 2871 0faa 0E97     		str	r7, [sp, #56]
 2872              	.L292:
 2873              		.loc 1 723 0
 2874 0fac 6B46     		mov	r3, sp
 2875 0fae CB33     		add	r3, r3, #203
 2876 0fb0 1A78     		ldrb	r2, [r3]
 2877 0fb2 414B     		ldr	r3, .L372+92
 2878 0fb4 1A73     		strb	r2, [r3, #12]
 2879              		.loc 1 726 0
 2880 0fb6 444B     		ldr	r3, .L372+108
 2881 0fb8 1978     		ldrb	r1, [r3]
 2882 0fba 3E4B     		ldr	r3, .L372+88
 2883 0fbc 1973     		strb	r1, [r3, #12]
 2884              		.loc 1 728 0
 2885 0fbe 294B     		ldr	r3, .L372+8
 2886 0fc0 1B78     		ldrb	r3, [r3]
 2887 0fc2 012B     		cmp	r3, #1
 2888 0fc4 03D0     		beq	.L295
 2889              	.LVL129:
 2890 0fc6 0129     		cmp	r1, #1
 2891 0fc8 01D0     		beq	.L295
 2892 0fca 0429     		cmp	r1, #4
 2893 0fcc 02D1     		bne	.L298
 2894              	.L295:
 2895              		.loc 1 731 0
 2896 0fce 3948     		ldr	r0, .L372+88
 2897 0fd0 FFF766F8 		bl	movePlayer
 2898              	.LVL130:
 2899              	.L298:
 2900              		.loc 1 734 0
 2901 0fd4 6B46     		mov	r3, sp
 2902 0fd6 CB33     		add	r3, r3, #203
 2903 0fd8 1978     		ldrb	r1, [r3]
 2904 0fda 3748     		ldr	r0, .L372+92
 2905 0fdc FFF760F8 		bl	movePlayer
 2906              	.LVL131:
 2907              	.L289:
 2908              		.loc 1 737 0
 2909 0fe0 6B46     		mov	r3, sp
 2910 0fe2 CB33     		add	r3, r3, #203
 2911 0fe4 1B78     		ldrb	r3, [r3]
 2912              	.LBB44:
 2913              	.LBB45:
 2914              		.loc 1 285 0
ARM GAS  /cygdrive/c/DOCUME~1/mkwapisz/LOCALS~1/Temp/ccwCXJbO.s 			page 78


 2915 0fe6 394B     		ldr	r3, .L372+112
 2916 0fe8 1B78     		ldrb	r3, [r3]
 2917 0fea 002B     		cmp	r3, #0
 2918 0fec 00D1     		bne	.LCB2941
 2919 0fee DCE0     		b	.L299	@long jump
 2920              	.LCB2941:
 2921 0ff0 1C4B     		ldr	r3, .L372+8
 2922 0ff2 1B78     		ldrb	r3, [r3]
 2923 0ff4 002B     		cmp	r3, #0
 2924 0ff6 02D0     		beq	.L301
 2925 0ff8 022B     		cmp	r3, #2
 2926 0ffa 00D0     		beq	.LCB2947
 2927 0ffc D5E0     		b	.L299	@long jump
 2928              	.LCB2947:
 2929              	.L301:
 2930              	.LBB46:
 2931              		.loc 1 288 0
 2932 0ffe 3448     		ldr	r0, .L372+116
 2933 1000 0D90     		str	r0, [sp, #52]
 2934 1002 344B     		ldr	r3, .L372+120
 2935 1004 017C     		ldrb	r1, [r0, #16]
 2936 1006 1F68     		ldr	r7, [r3]
 2937              	.LVL132:
 2938 1008 1991     		str	r1, [sp, #100]
 2939 100a BA78     		ldrb	r2, [r7, #2]
 2940 100c 7B78     		ldrb	r3, [r7, #1]
 2941 100e 5208     		lsr	r2, r2, #1
 2942 1010 9B18     		add	r3, r3, r2
 2943 1012 4A08     		lsr	r2, r1, #1
 2944 1014 9B1A     		sub	r3, r3, r2
 2945 1016 1B06     		lsl	r3, r3, #24
 2946 1018 1B0E     		lsr	r3, r3, #24
 2947 101a 1293     		str	r3, [sp, #72]
 2948              		.loc 1 290 0
 2949 101c 0024     		mov	r4, #0
 2950 101e 3C57     		ldrsb	r4, [r7, r4]
 2951              	.LVL133:
 2952 1020 201C     		mov	r0, r4
 2953 1022 FFF7FEFF 		bl	__floatsidf
 2954 1026 051C     		mov	r5, r0
 2955 1028 0E1C     		mov	r6, r1
 2956              	.LVL134:
 2957 102a 002C     		cmp	r4, #0
 2958 102c 05DA     		bge	.L303
 2959 102e 2A4A     		ldr	r2, .L372+124
 2960 1030 2A4B     		ldr	r3, .L372+128
 2961 1032 FFF7FEFF 		bl	__adddf3
 2962 1036 051C     		mov	r5, r0
 2963 1038 0E1C     		mov	r6, r1
 2964              	.L303:
 2965 103a 0D9A     		ldr	r2, [sp, #52]
 2966              		.loc 1 291 0
 2967 103c 1D4B     		ldr	r3, .L372+88
 2968              		.loc 1 290 0
 2969 103e 1560     		str	r5, [r2]
 2970 1040 5660     		str	r6, [r2, #4]
 2971              		.loc 1 291 0
ARM GAS  /cygdrive/c/DOCUME~1/mkwapisz/LOCALS~1/Temp/ccwCXJbO.s 			page 79


 2972 1042 9F42     		cmp	r7, r3
 2973 1044 50D1     		bne	.L304
 2974              		.loc 1 292 0
 2975 1046 264A     		ldr	r2, .L372+132
 2976 1048 264B     		ldr	r3, .L372+136
 2977 104a 281C     		mov	r0, r5
 2978 104c 311C     		mov	r1, r6
 2979 104e FFF7FEFF 		bl	__adddf3
 2980 1052 0D9B     		ldr	r3, [sp, #52]
 2981 1054 1860     		str	r0, [r3]
 2982 1056 5960     		str	r1, [r3, #4]
 2983 1058 52E0     		b	.L306
 2984              	.L373:
 2985 105a 0000     		.align	2
 2986              	.L372:
 2987 105c 6C010000 		.word	.LC135
 2988 1060 78010000 		.word	.LC137
 2989 1064 AC000000 		.word	gameType
 2990 1068 14000000 		.word	.LC24
 2991 106c 18000000 		.word	.LC26
 2992 1070 84010000 		.word	.LC139
 2993 1074 AD000000 		.word	recvPos
 2994 1078 30000000 		.word	.LC31
 2995 107c AE000000 		.word	recvBuf
 2996 1080 34010000 		.word	.LC115
 2997 1084 A4010000 		.word	.LC141
 2998 1088 B4010000 		.word	.LC143
 2999 108c C8010000 		.word	.LC147
 3000 1090 D8010000 		.word	.LC149
 3001 1094 B8010000 		.word	.LC145
 3002 1098 E0010000 		.word	.LC151
 3003 109c 54000000 		.word	.LC37
 3004 10a0 58000000 		.word	.LC39
 3005 10a4 5C000000 		.word	.LC41
 3006 10a8 60000000 		.word	.LC43
 3007 10ac 64000000 		.word	.LC45
 3008 10b0 68000000 		.word	.LC47
 3009 10b4 00000000 		.word	player1
 3010 10b8 10000000 		.word	player2
 3011 10bc 20000000 		.word	pActivePlayer
 3012 10c0 08020000 		.word	.LC156
 3013 10c4 F8010000 		.word	.LC154
 3014 10c8 00000000 		.word	remoteClientKey
 3015 10cc 5C000000 		.word	serving
 3016 10d0 28000000 		.word	ball
 3017 10d4 24000000 		.word	pServingPlayer
 3018 10d8 00007040 		.word	1081081856
 3019 10dc 00000000 		.word	0
 3020 10e0 00000840 		.word	1074266112
 3021 10e4 00000000 		.word	0
 3022              	.L304:
 3023              		.loc 1 294 0
 3024 10e8 1998     		ldr	r0, [sp, #100]
 3025 10ea FFF7FEFF 		bl	__floatsidf
 3026 10ee 021C     		mov	r2, r0
 3027 10f0 0B1C     		mov	r3, r1
 3028 10f2 281C     		mov	r0, r5
ARM GAS  /cygdrive/c/DOCUME~1/mkwapisz/LOCALS~1/Temp/ccwCXJbO.s 			page 80


 3029 10f4 311C     		mov	r1, r6
 3030 10f6 FFF7FEFF 		bl	__subdf3
 3031 10fa 0D9C     		ldr	r4, [sp, #52]
 3032 10fc 2060     		str	r0, [r4]
 3033 10fe 6160     		str	r1, [r4, #4]
 3034              	.L306:
 3035              		.loc 1 296 0
 3036 1100 D84D     		ldr	r5, .L374
 3037 1102 1298     		ldr	r0, [sp, #72]
 3038 1104 0C95     		str	r5, [sp, #48]
 3039 1106 FFF7FEFF 		bl	__floatsidf
 3040 110a EE68     		ldr	r6, [r5, #12]
 3041 110c AD68     		ldr	r5, [r5, #8]
 3042 110e 021C     		mov	r2, r0
 3043 1110 0B1C     		mov	r3, r1
 3044 1112 281C     		mov	r0, r5
 3045 1114 311C     		mov	r1, r6
 3046 1116 FFF7FEFF 		bl	__nedf2
 3047 111a 0028     		cmp	r0, #0
 3048 111c 3BD0     		beq	.L307
 3049              		.loc 1 299 0
 3050 111e 0C9F     		ldr	r7, [sp, #48]
 3051 1120 3868     		ldr	r0, [r7]
 3052 1122 7968     		ldr	r1, [r7, #4]
 3053 1124 FFF7FEFF 		bl	__fixunsdfsi
 3054 1128 311C     		mov	r1, r6
 3055 112a 0406     		lsl	r4, r0, #24
 3056 112c 281C     		mov	r0, r5
 3057 112e FFF7FEFF 		bl	__fixunsdfsi
 3058 1132 199A     		ldr	r2, [sp, #100]
 3059 1134 240E     		lsr	r4, r4, #24
 3060 1136 0106     		lsl	r1, r0, #24
 3061 1138 0023     		mov	r3, #0
 3062 113a 201C     		mov	r0, r4
 3063 113c 090E     		lsr	r1, r1, #24
 3064 113e 0093     		str	r3, [sp]
 3065 1140 131C     		mov	r3, r2
 3066 1142 FFF7FEFF 		bl	lcdRect
 3067              		.loc 1 301 0
 3068 1146 1298     		ldr	r0, [sp, #72]
 3069 1148 0406     		lsl	r4, r0, #24
 3070 114a 2416     		asr	r4, r4, #24
 3071 114c 201C     		mov	r0, r4
 3072 114e FFF7FEFF 		bl	__floatsidf
 3073 1152 061C     		mov	r6, r0
 3074 1154 0F1C     		mov	r7, r1
 3075 1156 002C     		cmp	r4, #0
 3076 1158 05DA     		bge	.L310
 3077 115a C34A     		ldr	r2, .L374+4
 3078 115c C34B     		ldr	r3, .L374+8
 3079 115e FFF7FEFF 		bl	__adddf3
 3080 1162 061C     		mov	r6, r0
 3081 1164 0F1C     		mov	r7, r1
 3082              	.L310:
 3083 1166 0C99     		ldr	r1, [sp, #48]
 3084              		.loc 1 304 0
 3085 1168 0D7C     		ldrb	r5, [r1, #16]
ARM GAS  /cygdrive/c/DOCUME~1/mkwapisz/LOCALS~1/Temp/ccwCXJbO.s 			page 81


 3086              		.loc 1 301 0
 3087 116a 8E60     		str	r6, [r1, #8]
 3088 116c CF60     		str	r7, [r1, #12]
 3089              		.loc 1 304 0
 3090 116e 0868     		ldr	r0, [r1]
 3091 1170 4968     		ldr	r1, [r1, #4]
 3092 1172 FFF7FEFF 		bl	__fixunsdfsi
 3093 1176 391C     		mov	r1, r7
 3094 1178 0406     		lsl	r4, r0, #24
 3095 117a 301C     		mov	r0, r6
 3096 117c FFF7FEFF 		bl	__fixunsdfsi
 3097 1180 0C9E     		ldr	r6, [sp, #48]
 3098 1182 737C     		ldrb	r3, [r6, #17]
 3099 1184 0106     		lsl	r1, r0, #24
 3100 1186 240E     		lsr	r4, r4, #24
 3101 1188 0093     		str	r3, [sp]
 3102 118a 090E     		lsr	r1, r1, #24
 3103 118c 201C     		mov	r0, r4
 3104 118e 2A1C     		mov	r2, r5
 3105 1190 2B1C     		mov	r3, r5
 3106 1192 FFF7FEFF 		bl	lcdRect
 3107              	.L307:
 3108              		.loc 1 307 0
 3109 1196 B64B     		ldr	r3, .L374+12
 3110 1198 1B68     		ldr	r3, [r3]
 3111 119a 1B7B     		ldrb	r3, [r3, #12]
 3112 119c 102B     		cmp	r3, #16
 3113 119e 00D0     		beq	.LCB3127
 3114 11a0 24E2     		b	.L311	@long jump
 3115              	.LCB3127:
 3116              		.loc 1 309 0
 3117 11a2 B44A     		ldr	r2, .L374+16
 3118 11a4 0023     		mov	r3, #0
 3119 11a6 1370     		strb	r3, [r2]
 3120 11a8 20E2     		b	.L311
 3121              	.LVL135:
 3122              	.L299:
 3123              	.LBE46:
 3124              		.loc 1 315 0
 3125 11aa B34B     		ldr	r3, .L374+20
 3126 11ac 1A68     		ldr	r2, [r3]
 3127 11ae B34B     		ldr	r3, .L374+24
 3128 11b0 1B68     		ldr	r3, [r3]
 3129 11b2 6433     		add	r3, r3, #100
 3130 11b4 9342     		cmp	r3, r2
 3131 11b6 00D9     		bls	.LCB3147
 3132 11b8 18E2     		b	.L311	@long jump
 3133              	.LCB3147:
 3134              		.loc 1 319 0
 3135 11ba AA4F     		ldr	r7, .L374
 3136              	.LVL136:
 3137              	.LBE45:
 3138 11bc 3868     		ldr	r0, [r7]
 3139 11be 7968     		ldr	r1, [r7, #4]
 3140 11c0 FFF7FEFF 		bl	floor
 3141 11c4 FFF7FEFF 		bl	__fixunsdfsi
 3142 11c8 0406     		lsl	r4, r0, #24
ARM GAS  /cygdrive/c/DOCUME~1/mkwapisz/LOCALS~1/Temp/ccwCXJbO.s 			page 82


 3143              	.LVL137:
 3144 11ca B868     		ldr	r0, [r7, #8]
 3145 11cc F968     		ldr	r1, [r7, #12]
 3146 11ce FFF7FEFF 		bl	floor
 3147 11d2 FFF7FEFF 		bl	__fixunsdfsi
 3148              	.LBB47:
 3149 11d6 3D7C     		ldrb	r5, [r7, #16]
 3150              	.LBE47:
 3151 11d8 0106     		lsl	r1, r0, #24
 3152 11da 0023     		mov	r3, #0
 3153 11dc 240E     		lsr	r4, r4, #24
 3154 11de 0093     		str	r3, [sp]
 3155 11e0 090E     		lsr	r1, r1, #24
 3156 11e2 2B1C     		mov	r3, r5
 3157 11e4 201C     		mov	r0, r4
 3158 11e6 2A1C     		mov	r2, r5
 3159 11e8 FFF7FEFF 		bl	lcdRect
 3160              	.LBB48:
 3161              		.loc 1 322 0
 3162 11ec A44B     		ldr	r3, .L374+28
 3163 11ee 1B78     		ldrb	r3, [r3]
 3164 11f0 002B     		cmp	r3, #0
 3165 11f2 02D0     		beq	.L314
 3166 11f4 022B     		cmp	r3, #2
 3167 11f6 00D0     		beq	.LCB3179
 3168 11f8 D5E1     		b	.L316	@long jump
 3169              	.LCB3179:
 3170              	.L314:
 3171              		.loc 1 326 0
 3172 11fa 7869     		ldr	r0, [r7, #20]
 3173 11fc B969     		ldr	r1, [r7, #24]
 3174 11fe A14A     		ldr	r2, .L374+32
 3175 1200 A14B     		ldr	r3, .L374+36
 3176 1202 1690     		str	r0, [sp, #88]
 3177 1204 1791     		str	r1, [sp, #92]
 3178 1206 FFF7FEFF 		bl	__gtdf2
 3179 120a 0028     		cmp	r0, #0
 3180 120c 26DD     		ble	.L317
 3181              		.loc 1 330 0
 3182 120e 0021     		mov	r1, #0
 3183 1210 3A68     		ldr	r2, [r7]
 3184 1212 7B68     		ldr	r3, [r7, #4]
 3185 1214 1491     		str	r1, [sp, #80]
 3186 1216 1698     		ldr	r0, [sp, #88]
 3187 1218 1799     		ldr	r1, [sp, #92]
 3188 121a FFF7FEFF 		bl	__adddf3
 3189 121e 041C     		mov	r4, r0
 3190 1220 387C     		ldrb	r0, [r7, #16]
 3191 1222 0D1C     		mov	r5, r1
 3192 1224 FFF7FEFF 		bl	__floatsidf
 3193 1228 021C     		mov	r2, r0
 3194 122a 0B1C     		mov	r3, r1
 3195 122c 201C     		mov	r0, r4
 3196 122e 291C     		mov	r1, r5
 3197 1230 FFF7FEFF 		bl	__adddf3
 3198 1234 954E     		ldr	r6, .L374+40
 3199              	.LVL138:
ARM GAS  /cygdrive/c/DOCUME~1/mkwapisz/LOCALS~1/Temp/ccwCXJbO.s 			page 83


 3200 1236 041C     		mov	r4, r0
 3201 1238 3078     		ldrb	r0, [r6]
 3202 123a 0D1C     		mov	r5, r1
 3203 123c FFF7FEFF 		bl	__floatsidf
 3204 1240 021C     		mov	r2, r0
 3205 1242 0B1C     		mov	r3, r1
 3206 1244 201C     		mov	r0, r4
 3207 1246 291C     		mov	r1, r5
 3208 1248 FFF7FEFF 		bl	__gedf2
 3209 124c 0028     		cmp	r0, #0
 3210 124e 01DB     		blt	.L320
 3211 1250 0122     		mov	r2, #1
 3212 1252 1492     		str	r2, [sp, #80]
 3213              	.L320:
 3214 1254 FF23     		mov	r3, #255
 3215 1256 1596     		str	r6, [sp, #84]
 3216 1258 1393     		str	r3, [sp, #76]
 3217 125a 1BE0     		b	.L322
 3218              	.LVL139:
 3219              	.L317:
 3220              		.loc 1 336 0
 3221 125c 3A68     		ldr	r2, [r7]
 3222 125e 7B68     		ldr	r3, [r7, #4]
 3223 1260 0024     		mov	r4, #0
 3224 1262 1698     		ldr	r0, [sp, #88]
 3225 1264 1799     		ldr	r1, [sp, #92]
 3226 1266 1494     		str	r4, [sp, #80]
 3227 1268 FFF7FEFF 		bl	__adddf3
 3228 126c 884E     		ldr	r6, .L374+44
 3229              	.LVL140:
 3230 126e 041C     		mov	r4, r0
 3231 1270 3078     		ldrb	r0, [r6]
 3232 1272 0330     		add	r0, r0, #3
 3233 1274 0D1C     		mov	r5, r1
 3234 1276 FFF7FEFF 		bl	__floatsidf
 3235 127a 021C     		mov	r2, r0
 3236 127c 0B1C     		mov	r3, r1
 3237 127e 201C     		mov	r0, r4
 3238 1280 291C     		mov	r1, r5
 3239 1282 FFF7FEFF 		bl	__ltdf2
 3240 1286 0028     		cmp	r0, #0
 3241 1288 01DA     		bge	.L323
 3242 128a 0125     		mov	r5, #1
 3243 128c 1495     		str	r5, [sp, #80]
 3244              	.L323:
 3245 128e 1596     		str	r6, [sp, #84]
 3246 1290 0126     		mov	r6, #1
 3247 1292 1396     		str	r6, [sp, #76]
 3248              	.L322:
 3249              		.loc 1 340 0
 3250 1294 734E     		ldr	r6, .L374
 3251 1296 F469     		ldr	r4, [r6, #28]
 3252 1298 356A     		ldr	r5, [r6, #32]
 3253 129a B068     		ldr	r0, [r6, #8]
 3254 129c F168     		ldr	r1, [r6, #12]
 3255 129e 221C     		mov	r2, r4
 3256 12a0 2B1C     		mov	r3, r5
ARM GAS  /cygdrive/c/DOCUME~1/mkwapisz/LOCALS~1/Temp/ccwCXJbO.s 			page 84


 3257 12a2 1A90     		str	r0, [sp, #104]
 3258 12a4 1B91     		str	r1, [sp, #108]
 3259 12a6 FFF7FEFF 		bl	__adddf3
 3260 12aa 7A4A     		ldr	r2, .L374+48
 3261 12ac 7A4B     		ldr	r3, .L374+52
 3262 12ae FFF7FEFF 		bl	__ltdf2
 3263 12b2 0028     		cmp	r0, #0
 3264 12b4 12DB     		blt	.L325
 3265 12b6 307C     		ldrb	r0, [r6, #16]
 3266 12b8 FFF7FEFF 		bl	__floatsidf
 3267 12bc 021C     		mov	r2, r0
 3268 12be 0B1C     		mov	r3, r1
 3269 12c0 1A98     		ldr	r0, [sp, #104]
 3270 12c2 1B99     		ldr	r1, [sp, #108]
 3271 12c4 FFF7FEFF 		bl	__adddf3
 3272 12c8 221C     		mov	r2, r4
 3273 12ca 2B1C     		mov	r3, r5
 3274 12cc FFF7FEFF 		bl	__adddf3
 3275 12d0 724A     		ldr	r2, .L374+56
 3276 12d2 734B     		ldr	r3, .L374+60
 3277 12d4 FFF7FEFF 		bl	__gtdf2
 3278 12d8 0028     		cmp	r0, #0
 3279 12da 04DD     		ble	.L327
 3280              	.L325:
 3281              		.loc 1 343 0
 3282 12dc 8021     		mov	r1, #128
 3283 12de 0906     		lsl	r1, r1, #24
 3284 12e0 6318     		add	r3, r4, r1
 3285 12e2 F361     		str	r3, [r6, #28]
 3286 12e4 3562     		str	r5, [r6, #32]
 3287              	.L327:
 3288              		.loc 1 348 0
 3289 12e6 149A     		ldr	r2, [sp, #80]
 3290 12e8 002A     		cmp	r2, #0
 3291 12ea 00D1     		bne	.LCB3294
 3292 12ec 10E1     		b	.L329	@long jump
 3293              	.LCB3294:
 3294              	.LBB49:
 3295              		.loc 1 355 0
 3296 12ee 5D4B     		ldr	r3, .L374
 3297 12f0 DC69     		ldr	r4, [r3, #28]
 3298 12f2 1D6A     		ldr	r5, [r3, #32]
 3299 12f4 0B93     		str	r3, [sp, #44]
 3300              		.loc 1 357 0
 3301 12f6 201C     		mov	r0, r4
 3302 12f8 169A     		ldr	r2, [sp, #88]
 3303 12fa 179B     		ldr	r3, [sp, #92]
 3304 12fc 291C     		mov	r1, r5
 3305              		.loc 1 355 0
 3306 12fe 1C94     		str	r4, [sp, #112]
 3307 1300 1D95     		str	r5, [sp, #116]
 3308              		.loc 1 357 0
 3309 1302 FFF7FEFF 		bl	__divdf3
 3310 1306 159E     		ldr	r6, [sp, #84]
 3311 1308 041C     		mov	r4, r0
 3312 130a 3078     		ldrb	r0, [r6]
 3313 130c 0D1C     		mov	r5, r1
ARM GAS  /cygdrive/c/DOCUME~1/mkwapisz/LOCALS~1/Temp/ccwCXJbO.s 			page 85


 3314 130e FFF7FEFF 		bl	__floatsidf
 3315 1312 0B9F     		ldr	r7, [sp, #44]
 3316 1314 3A68     		ldr	r2, [r7]
 3317 1316 7B68     		ldr	r3, [r7, #4]
 3318 1318 FFF7FEFF 		bl	__subdf3
 3319 131c 021C     		mov	r2, r0
 3320 131e 0B1C     		mov	r3, r1
 3321 1320 201C     		mov	r0, r4
 3322 1322 291C     		mov	r1, r5
 3323 1324 FFF7FEFF 		bl	__muldf3
 3324 1328 1A9A     		ldr	r2, [sp, #104]
 3325 132a 1B9B     		ldr	r3, [sp, #108]
 3326 132c FFF7FEFF 		bl	__adddf3
 3327 1330 FFF7FEFF 		bl	__fixunsdfsi
 3328 1334 159E     		ldr	r6, [sp, #84]
 3329 1336 0006     		lsl	r0, r0, #24
 3330 1338 020E     		lsr	r2, r0, #24
 3331 133a 387C     		ldrb	r0, [r7, #16]
 3332 133c 7678     		ldrb	r6, [r6, #1]
 3333 133e 1318     		add	r3, r2, r0
 3334 1340 B342     		cmp	r3, r6
 3335 1342 00DA     		bge	.LCB3331
 3336 1344 E4E0     		b	.L329	@long jump
 3337              	.LCB3331:
 3338 1346 1599     		ldr	r1, [sp, #84]
 3339 1348 8F78     		ldrb	r7, [r1, #2]
 3340 134a F319     		add	r3, r6, r7
 3341 134c 9A42     		cmp	r2, r3
 3342 134e 00DD     		ble	.LCB3336
 3343 1350 DEE0     		b	.L329	@long jump
 3344              	.LCB3336:
 3345              		.loc 1 363 0
 3346 1352 4008     		lsr	r0, r0, #1
 3347 1354 FFF7FEFF 		bl	__floatsidf
 3348 1358 021C     		mov	r2, r0
 3349 135a 0B1C     		mov	r3, r1
 3350 135c 1A98     		ldr	r0, [sp, #104]
 3351 135e 1B99     		ldr	r1, [sp, #108]
 3352 1360 FFF7FEFF 		bl	__adddf3
 3353 1364 041C     		mov	r4, r0
 3354 1366 301C     		mov	r0, r6
 3355 1368 0D1C     		mov	r5, r1
 3356 136a FFF7FEFF 		bl	__floatsidf
 3357 136e 021C     		mov	r2, r0
 3358 1370 0B1C     		mov	r3, r1
 3359 1372 201C     		mov	r0, r4
 3360 1374 291C     		mov	r1, r5
 3361 1376 FFF7FEFF 		bl	__subdf3
 3362 137a 041C     		mov	r4, r0
 3363 137c 381C     		mov	r0, r7
 3364 137e 0D1C     		mov	r5, r1
 3365 1380 FFF7FEFF 		bl	__floatsidf
 3366 1384 021C     		mov	r2, r0
 3367 1386 0B1C     		mov	r3, r1
 3368 1388 201C     		mov	r0, r4
 3369 138a 291C     		mov	r1, r5
 3370 138c FFF7FEFF 		bl	__divdf3
ARM GAS  /cygdrive/c/DOCUME~1/mkwapisz/LOCALS~1/Temp/ccwCXJbO.s 			page 86


 3371 1390 444A     		ldr	r2, .L374+64
 3372 1392 454B     		ldr	r3, .L374+68
 3373 1394 FFF7FEFF 		bl	__muldf3
 3374 1398 444A     		ldr	r2, .L374+72
 3375 139a 454B     		ldr	r3, .L374+76
 3376 139c FFF7FEFF 		bl	__muldf3
 3377 13a0 444A     		ldr	r2, .L374+80
 3378 13a2 454B     		ldr	r3, .L374+84
 3379 13a4 FFF7FEFF 		bl	__divdf3
 3380 13a8 444A     		ldr	r2, .L374+88
 3381 13aa 454B     		ldr	r3, .L374+92
 3382 13ac FFF7FEFF 		bl	__subdf3
 3383 13b0 0990     		str	r0, [sp, #36]
 3384 13b2 0A91     		str	r1, [sp, #40]
 3385              	.LBE49:
 3386              	.LBE48:
 3387              		.loc 1 364 0
 3388 13b4 1698     		ldr	r0, [sp, #88]
 3389 13b6 1799     		ldr	r1, [sp, #92]
 3390 13b8 021C     		mov	r2, r0
 3391 13ba 0B1C     		mov	r3, r1
 3392 13bc FFF7FEFF 		bl	__muldf3
 3393 13c0 041C     		mov	r4, r0
 3394 13c2 0D1C     		mov	r5, r1
 3395 13c4 1C98     		ldr	r0, [sp, #112]
 3396 13c6 1D99     		ldr	r1, [sp, #116]
 3397 13c8 021C     		mov	r2, r0
 3398 13ca 0B1C     		mov	r3, r1
 3399 13cc FFF7FEFF 		bl	__muldf3
 3400 13d0 0B1C     		mov	r3, r1
 3401 13d2 021C     		mov	r2, r0
 3402 13d4 291C     		mov	r1, r5
 3403 13d6 201C     		mov	r0, r4
 3404 13d8 FFF7FEFF 		bl	__adddf3
 3405 13dc FFF7FEFF 		bl	sqrt
 3406              	.LBB50:
 3407              	.LBB51:
 3408              		.loc 1 365 0
 3409 13e0 139A     		ldr	r2, [sp, #76]
 3410              	.LBE51:
 3411              	.LBE50:
 3412              		.loc 1 364 0
 3413 13e2 061C     		mov	r6, r0
 3414              	.LVL141:
 3415              	.LBB52:
 3416              	.LBB53:
 3417              		.loc 1 365 0
 3418 13e4 1006     		lsl	r0, r2, #24
 3419              	.LBE53:
 3420              	.LBE52:
 3421              		.loc 1 364 0
 3422 13e6 0F1C     		mov	r7, r1
 3423              	.LVL142:
 3424              	.LBB54:
 3425              	.LBB55:
 3426              		.loc 1 365 0
 3427 13e8 0016     		asr	r0, r0, #24
ARM GAS  /cygdrive/c/DOCUME~1/mkwapisz/LOCALS~1/Temp/ccwCXJbO.s 			page 87


 3428 13ea FFF7FEFF 		bl	__floatsidf
 3429 13ee 321C     		mov	r2, r6
 3430 13f0 3B1C     		mov	r3, r7
 3431 13f2 FFF7FEFF 		bl	__muldf3
 3432 13f6 041C     		mov	r4, r0
 3433 13f8 0D1C     		mov	r5, r1
 3434              	.LBE55:
 3435              	.LBE54:
 3436 13fa 0998     		ldr	r0, [sp, #36]
 3437 13fc 0A99     		ldr	r1, [sp, #40]
 3438              	.LVL143:
 3439 13fe FFF7FEFF 		bl	cos
 3440              	.LVL144:
 3441 1402 021C     		mov	r2, r0
 3442 1404 0B1C     		mov	r3, r1
 3443 1406 201C     		mov	r0, r4
 3444 1408 291C     		mov	r1, r5
 3445 140a FFF7FEFF 		bl	__muldf3
 3446              	.LBB56:
 3447              	.LBB57:
 3448 140e 0B9B     		ldr	r3, [sp, #44]
 3449              	.LBE57:
 3450              	.LBE56:
 3451 1410 041C     		mov	r4, r0
 3452 1412 0D1C     		mov	r5, r1
 3453              	.LBB58:
 3454              	.LBB59:
 3455 1414 5C61     		str	r4, [r3, #20]
 3456 1416 9D61     		str	r5, [r3, #24]
 3457              	.LBE59:
 3458              	.LBE58:
 3459              		.loc 1 366 0
 3460 1418 0998     		ldr	r0, [sp, #36]
 3461 141a 0A99     		ldr	r1, [sp, #40]
 3462              	.LVL145:
 3463 141c FFF7FEFF 		bl	sin
 3464              	.LVL146:
 3465 1420 0B1C     		mov	r3, r1
 3466 1422 021C     		mov	r2, r0
 3467 1424 391C     		mov	r1, r7
 3468 1426 301C     		mov	r0, r6
 3469 1428 FFF7FEFF 		bl	__muldf3
 3470 142c 061C     		mov	r6, r0
 3471              	.LVL147:
 3472              	.LBB60:
 3473              	.LBB61:
 3474 142e 0B98     		ldr	r0, [sp, #44]
 3475              	.LBE61:
 3476              	.LBE60:
 3477 1430 0F1C     		mov	r7, r1
 3478              	.LVL148:
 3479              	.LBB62:
 3480              	.LBB63:
 3481 1432 C661     		str	r6, [r0, #28]
 3482 1434 0762     		str	r7, [r0, #32]
 3483              		.loc 1 369 0
 3484 1436 1599     		ldr	r1, [sp, #84]
ARM GAS  /cygdrive/c/DOCUME~1/mkwapisz/LOCALS~1/Temp/ccwCXJbO.s 			page 88


 3485 1438 0B7B     		ldrb	r3, [r1, #12]
 3486 143a 102B     		cmp	r3, #16
 3487 143c 46D1     		bne	.L333
 3488              		.loc 1 371 0
 3489 143e 214A     		ldr	r2, .L374+96
 3490 1440 214B     		ldr	r3, .L374+100
 3491 1442 201C     		mov	r0, r4
 3492 1444 291C     		mov	r1, r5
 3493 1446 FFF7FEFF 		bl	__muldf3
 3494 144a 0B9A     		ldr	r2, [sp, #44]
 3495 144c 5061     		str	r0, [r2, #20]
 3496 144e 9161     		str	r1, [r2, #24]
 3497              		.loc 1 372 0
 3498 1450 1C4A     		ldr	r2, .L374+96
 3499 1452 1D4B     		ldr	r3, .L374+100
 3500 1454 301C     		mov	r0, r6
 3501 1456 391C     		mov	r1, r7
 3502 1458 FFF7FEFF 		bl	__muldf3
 3503 145c 0B9B     		ldr	r3, [sp, #44]
 3504 145e D861     		str	r0, [r3, #28]
 3505 1460 1962     		str	r1, [r3, #32]
 3506 1462 55E0     		b	.L329
 3507              	.L375:
 3508              		.align	2
 3509              	.L374:
 3510 1464 28000000 		.word	ball
 3511 1468 00007040 		.word	1081081856
 3512 146c 00000000 		.word	0
 3513 1470 24000000 		.word	pServingPlayer
 3514 1474 5C000000 		.word	serving
 3515 1478 00000000 		.word	ms
 3516 147c 04000000 		.word	lastMove
 3517 1480 AC000000 		.word	gameType
 3518 1484 00000000 		.word	0
 3519 1488 00000000 		.word	0
 3520 148c 10000000 		.word	player2
 3521 1490 00000000 		.word	player1
 3522 1494 00003040 		.word	1076887552
 3523 1498 00000000 		.word	0
 3524 149c 00206040 		.word	1080041472
 3525 14a0 00000000 		.word	0
 3526 14a4 00002440 		.word	1076101120
 3527 14a8 00000000 		.word	0
 3528 14ac FB210940 		.word	1074340347
 3529 14b0 182D4454 		.word	1413754136
 3530 14b4 00002840 		.word	1076363264
 3531 14b8 00000000 		.word	0
 3532 14bc A6F1F43F 		.word	1073017254
 3533 14c0 3FD038C6 		.word	-969355201
 3534 14c4 CCCCF43F 		.word	1073007820
 3535 14c8 CDCCCCCC 		.word	-858993459
 3536              	.L333:
 3537              		.loc 1 377 0
 3538 14cc 201C     		mov	r0, r4
 3539 14ce 291C     		mov	r1, r5
 3540 14d0 874B     		ldr	r3, .L376+4
 3541 14d2 864A     		ldr	r2, .L376
ARM GAS  /cygdrive/c/DOCUME~1/mkwapisz/LOCALS~1/Temp/ccwCXJbO.s 			page 89


 3542 14d4 FFF7FEFF 		bl	__gedf2
 3543 14d8 0028     		cmp	r0, #0
 3544 14da 08DB     		blt	.L335
 3545              		.loc 1 378 0
 3546 14dc 201C     		mov	r0, r4
 3547 14de 291C     		mov	r1, r5
 3548 14e0 844A     		ldr	r2, .L376+8
 3549 14e2 854B     		ldr	r3, .L376+12
 3550 14e4 FFF7FEFF 		bl	__muldf3
 3551 14e8 0B9C     		ldr	r4, [sp, #44]
 3552 14ea 6061     		str	r0, [r4, #20]
 3553 14ec A161     		str	r1, [r4, #24]
 3554              	.L335:
 3555              		.loc 1 379 0
 3556 14ee 301C     		mov	r0, r6
 3557 14f0 391C     		mov	r1, r7
 3558 14f2 7F4B     		ldr	r3, .L376+4
 3559 14f4 7D4A     		ldr	r2, .L376
 3560 14f6 FFF7FEFF 		bl	__gedf2
 3561 14fa 0028     		cmp	r0, #0
 3562 14fc 08DB     		blt	.L329
 3563              		.loc 1 380 0
 3564 14fe 301C     		mov	r0, r6
 3565 1500 391C     		mov	r1, r7
 3566 1502 7C4A     		ldr	r2, .L376+8
 3567 1504 7C4B     		ldr	r3, .L376+12
 3568 1506 FFF7FEFF 		bl	__muldf3
 3569 150a 0B9D     		ldr	r5, [sp, #44]
 3570 150c E861     		str	r0, [r5, #28]
 3571 150e 2962     		str	r1, [r5, #32]
 3572              	.L329:
 3573              	.LBE63:
 3574              		.loc 1 385 0
 3575 1510 7A4E     		ldr	r6, .L376+16
 3576 1512 7269     		ldr	r2, [r6, #20]
 3577 1514 B369     		ldr	r3, [r6, #24]
 3578 1516 3068     		ldr	r0, [r6]
 3579 1518 7168     		ldr	r1, [r6, #4]
 3580 151a 0896     		str	r6, [sp, #32]
 3581 151c FFF7FEFF 		bl	__adddf3
 3582 1520 061C     		mov	r6, r0
 3583 1522 0898     		ldr	r0, [sp, #32]
 3584 1524 0F1C     		mov	r7, r1
 3585              		.loc 1 386 0
 3586 1526 021C     		mov	r2, r0
 3587 1528 136A     		ldr	r3, [r2, #32]
 3588 152a D269     		ldr	r2, [r2, #28]
 3589              		.loc 1 385 0
 3590 152c 0660     		str	r6, [r0]
 3591 152e 4760     		str	r7, [r0, #4]
 3592              		.loc 1 386 0
 3593 1530 C168     		ldr	r1, [r0, #12]
 3594 1532 8068     		ldr	r0, [r0, #8]
 3595 1534 FFF7FEFF 		bl	__adddf3
 3596 1538 089B     		ldr	r3, [sp, #32]
 3597 153a 1E90     		str	r0, [sp, #120]
 3598 153c 1F91     		str	r1, [sp, #124]
ARM GAS  /cygdrive/c/DOCUME~1/mkwapisz/LOCALS~1/Temp/ccwCXJbO.s 			page 90


 3599 153e 9860     		str	r0, [r3, #8]
 3600 1540 D960     		str	r1, [r3, #12]
 3601              		.loc 1 389 0
 3602 1542 301C     		mov	r0, r6
 3603 1544 391C     		mov	r1, r7
 3604 1546 6E4A     		ldr	r2, .L376+20
 3605 1548 6E4B     		ldr	r3, .L376+24
 3606 154a FFF7FEFF 		bl	__ledf2
 3607 154e 0028     		cmp	r0, #0
 3608 1550 01DC     		bgt	.L340
 3609              		.loc 1 391 0
 3610 1552 6D48     		ldr	r0, .L376+28
 3611 1554 08E0     		b	.L367
 3612              	.L340:
 3613              		.loc 1 394 0
 3614 1556 301C     		mov	r0, r6
 3615 1558 391C     		mov	r1, r7
 3616 155a 6C4A     		ldr	r2, .L376+32
 3617 155c 6C4B     		ldr	r3, .L376+36
 3618 155e FFF7FEFF 		bl	__gedf2
 3619 1562 0028     		cmp	r0, #0
 3620 1564 06DB     		blt	.L344
 3621              		.loc 1 396 0
 3622 1566 6B48     		ldr	r0, .L376+40
 3623              	.L367:
 3624 1568 C378     		ldrb	r3, [r0, #3]
 3625 156a 0133     		add	r3, r3, #1
 3626 156c C370     		strb	r3, [r0, #3]
 3627              		.loc 1 397 0
 3628 156e FEF795FE 		bl	startNewServ
 3629 1572 37E0     		b	.L343
 3630              	.L344:
 3631              	.LBE62:
 3632              		.loc 1 403 0
 3633 1574 301C     		mov	r0, r6
 3634 1576 391C     		mov	r1, r7
 3635 1578 FFF7FEFF 		bl	floor
 3636 157c FFF7FEFF 		bl	__fixunsdfsi
 3637              	.LBB64:
 3638 1580 089C     		ldr	r4, [sp, #32]
 3639 1582 257C     		ldrb	r5, [r4, #16]
 3640              	.LBE64:
 3641 1584 0406     		lsl	r4, r0, #24
 3642 1586 1E98     		ldr	r0, [sp, #120]
 3643 1588 1F99     		ldr	r1, [sp, #124]
 3644 158a FFF7FEFF 		bl	floor
 3645 158e FFF7FEFF 		bl	__fixunsdfsi
 3646 1592 089E     		ldr	r6, [sp, #32]
 3647 1594 737C     		ldrb	r3, [r6, #17]
 3648 1596 0106     		lsl	r1, r0, #24
 3649 1598 240E     		lsr	r4, r4, #24
 3650 159a 0093     		str	r3, [sp]
 3651 159c 090E     		lsr	r1, r1, #24
 3652 159e 201C     		mov	r0, r4
 3653 15a0 2A1C     		mov	r2, r5
 3654 15a2 2B1C     		mov	r3, r5
 3655 15a4 1CE0     		b	.L368
ARM GAS  /cygdrive/c/DOCUME~1/mkwapisz/LOCALS~1/Temp/ccwCXJbO.s 			page 91


 3656              	.LVL149:
 3657              	.L316:
 3658              	.LBB65:
 3659              		.loc 1 412 0
 3660 15a6 FD6A     		ldr	r5, [r7, #44]
 3661 15a8 3E6B     		ldr	r6, [r7, #48]
 3662              		.loc 1 411 0
 3663 15aa 786A     		ldr	r0, [r7, #36]
 3664 15ac B96A     		ldr	r1, [r7, #40]
 3665              		.loc 1 414 0
 3666 15ae 3A7C     		ldrb	r2, [r7, #16]
 3667              		.loc 1 411 0
 3668 15b0 3860     		str	r0, [r7]
 3669 15b2 7960     		str	r1, [r7, #4]
 3670              		.loc 1 412 0
 3671 15b4 BD60     		str	r5, [r7, #8]
 3672 15b6 FE60     		str	r6, [r7, #12]
 3673              		.loc 1 414 0
 3674 15b8 1892     		str	r2, [sp, #96]
 3675              	.LBE65:
 3676 15ba FFF7FEFF 		bl	floor
 3677 15be FFF7FEFF 		bl	__fixunsdfsi
 3678              	.LVL150:
 3679 15c2 311C     		mov	r1, r6
 3680 15c4 0406     		lsl	r4, r0, #24
 3681 15c6 281C     		mov	r0, r5
 3682 15c8 FFF7FEFF 		bl	floor
 3683 15cc FFF7FEFF 		bl	__fixunsdfsi
 3684 15d0 7B7C     		ldrb	r3, [r7, #17]
 3685 15d2 189A     		ldr	r2, [sp, #96]
 3686 15d4 0106     		lsl	r1, r0, #24
 3687 15d6 240E     		lsr	r4, r4, #24
 3688 15d8 0093     		str	r3, [sp]
 3689 15da 090E     		lsr	r1, r1, #24
 3690 15dc 201C     		mov	r0, r4
 3691 15de 131C     		mov	r3, r2
 3692              	.L368:
 3693 15e0 FFF7FEFF 		bl	lcdRect
 3694              	.L343:
 3695              	.LBB66:
 3696              		.loc 1 418 0
 3697 15e4 4C4B     		ldr	r3, .L376+44
 3698 15e6 1A68     		ldr	r2, [r3]
 3699 15e8 4C4B     		ldr	r3, .L376+48
 3700 15ea 1A60     		str	r2, [r3]
 3701              	.LVL151:
 3702              	.L311:
 3703              	.LBE66:
 3704              	.LBE44:
 3705              		.loc 1 739 0
 3706 15ec 494B     		ldr	r3, .L376+40
 3707 15ee DB78     		ldrb	r3, [r3, #3]
 3708 15f0 032B     		cmp	r3, #3
 3709 15f2 03D0     		beq	.L347
 3710 15f4 444B     		ldr	r3, .L376+28
 3711 15f6 DB78     		ldrb	r3, [r3, #3]
 3712 15f8 032B     		cmp	r3, #3
ARM GAS  /cygdrive/c/DOCUME~1/mkwapisz/LOCALS~1/Temp/ccwCXJbO.s 			page 92


 3713 15fa 3AD1     		bne	.L349
 3714              	.L347:
 3715              		.loc 1 742 0
 3716 15fc 0121     		mov	r1, #1
 3717 15fe 0020     		mov	r0, #0
 3718 1600 FFF786F8 		bl	btSendAndRecvStatus
 3719              		.loc 1 746 0
 3720 1604 21A9     		add	r1, sp, #132
 3721 1606 0A23     		mov	r3, #10
 3722 1608 0B70     		strb	r3, [r1]
 3723              		.loc 1 747 0
 3724 160a 2823     		mov	r3, #40
 3725 160c 4B70     		strb	r3, [r1, #1]
 3726              		.loc 1 748 0
 3727 160e 6623     		mov	r3, #102
 3728 1610 8B70     		strb	r3, [r1, #2]
 3729              		.loc 1 749 0
 3730 1612 3823     		mov	r3, #56
 3731 1614 CB70     		strb	r3, [r1, #3]
 3732              		.loc 1 750 0
 3733 1616 0223     		mov	r3, #2
 3734 1618 0B71     		strb	r3, [r1, #4]
 3735              		.loc 1 753 0
 3736 161a 1423     		mov	r3, #20
 3737 161c 0B73     		strb	r3, [r1, #12]
 3738              		.loc 1 754 0
 3739 161e 404B     		ldr	r3, .L376+52
 3740 1620 2593     		str	r3, [sp, #148]
 3741              		.loc 1 755 0
 3742 1622 404B     		ldr	r3, .L376+56
 3743              		.loc 1 751 0
 3744 1624 0020     		mov	r0, #0
 3745              		.loc 1 755 0
 3746 1626 2693     		str	r3, [sp, #152]
 3747              		.loc 1 756 0
 3748 1628 2BAB     		add	r3, sp, #172
 3749              		.loc 1 751 0
 3750 162a 4871     		strb	r0, [r1, #5]
 3751              		.loc 1 756 0
 3752 162c 1870     		strb	r0, [r3]
 3753              		.loc 1 757 0
 3754 162e 6D21     		mov	r1, #109
 3755 1630 0133     		add	r3, r3, #1
 3756 1632 1970     		strb	r1, [r3]
 3757              		.loc 1 758 0
 3758 1634 0133     		add	r3, r3, #1
 3759 1636 1870     		strb	r0, [r3]
 3760              		.loc 1 759 0
 3761 1638 6946     		mov	r1, sp
 3762 163a 0323     		mov	r3, #3
 3763 163c 5B42     		neg	r3, r3
 3764 163e AF31     		add	r1, r1, #175
 3765 1640 0B70     		strb	r3, [r1]
 3766              		.loc 1 752 0
 3767 1642 394A     		ldr	r2, .L376+60
 3768              		.loc 1 760 0
 3769 1644 2023     		mov	r3, #32
ARM GAS  /cygdrive/c/DOCUME~1/mkwapisz/LOCALS~1/Temp/ccwCXJbO.s 			page 93


 3770 1646 5B42     		neg	r3, r3
 3771 1648 2CA9     		add	r1, sp, #176
 3772 164a 0B70     		strb	r3, [r1]
 3773              		.loc 1 752 0
 3774 164c 2392     		str	r2, [sp, #140]
 3775              		.loc 1 762 0
 3776 164e 25AB     		add	r3, sp, #148
 3777 1650 6946     		mov	r1, sp
 3778 1652 70CB     		ldmia	r3!, {r4, r5, r6}
 3779 1654 70C1     		stmia	r1!, {r4, r5, r6}
 3780              	.LVL152:
 3781 1656 91CB     		ldmia	r3!, {r0, r4, r7}
 3782 1658 91C1     		stmia	r1!, {r0, r4, r7}
 3783              	.LVL153:
 3784 165a 60CB     		ldmia	r3!, {r5, r6}
 3785 165c 60C1     		stmia	r1!, {r5, r6}
 3786 165e 2198     		ldr	r0, [sp, #132]
 3787 1660 2299     		ldr	r1, [sp, #136]
 3788 1662 249B     		ldr	r3, [sp, #144]
 3789 1664 FFF7FEFF 		bl	drawMenu
 3790 1668 0028     		cmp	r0, #0
 3791 166a 3BD0     		beq	.L351
 3792 166c 0128     		cmp	r0, #1
 3793 166e 37D0     		beq	.L352
 3794 1670 09E0     		b	.L353
 3795              	.LVL154:
 3796              	.L349:
 3797              	.LBE43:
 3798              		.loc 1 683 0
 3799 1672 0E9F     		ldr	r7, [sp, #56]
 3800              	.LVL155:
 3801 1674 002F     		cmp	r7, #0
 3802 1676 06D1     		bne	.L353
 3803 1678 42E4     		b	.L286
 3804              	.LVL156:
 3805              	.L209:
 3806 167a 0020     		mov	r0, #0
 3807              	.L369:
 3808 167c 2090     		str	r0, [sp, #128]
 3809              	.LVL157:
 3810 167e 04E0     		b	.L360
 3811              	.LVL158:
 3812              	.L214:
 3813 1680 0121     		mov	r1, #1
 3814 1682 2091     		str	r1, [sp, #128]
 3815              	.LVL159:
 3816 1684 01E0     		b	.L360
 3817              	.LVL160:
 3818              	.L353:
 3819 1686 0F9A     		ldr	r2, [sp, #60]
 3820 1688 2092     		str	r2, [sp, #128]
 3821              	.LVL161:
 3822              	.L360:
 3823              		.loc 1 674 0
 3824 168a 209B     		ldr	r3, [sp, #128]
 3825 168c 002B     		cmp	r3, #0
 3826 168e 01D1     		bne	.LCB3828
ARM GAS  /cygdrive/c/DOCUME~1/mkwapisz/LOCALS~1/Temp/ccwCXJbO.s 			page 94


 3827 1690 FFF72AFC 		bl	.L285	@far jump
 3828              	.LCB3828:
 3829              		.loc 1 772 0
 3830 1694 6D23     		mov	r3, #109
 3831 1696 0093     		str	r3, [sp]
 3832 1698 0220     		mov	r0, #2
 3833 169a 1021     		mov	r1, #16
 3834 169c 7D22     		mov	r2, #125
 3835 169e 5423     		mov	r3, #84
 3836 16a0 FFF7FEFF 		bl	lcdRect
 3837              		.loc 1 773 0
 3838 16a4 0023     		mov	r3, #0
 3839 16a6 7922     		mov	r2, #121
 3840 16a8 0093     		str	r3, [sp]
 3841 16aa 0420     		mov	r0, #4
 3842 16ac 5023     		mov	r3, #80
 3843 16ae 1221     		mov	r1, #18
 3844 16b0 FFF7FEFF 		bl	lcdRect
 3845              		.loc 1 774 0
 3846 16b4 0020     		mov	r0, #0
 3847 16b6 FD21     		mov	r1, #253
 3848 16b8 FFF7FEFF 		bl	lcdColor
 3849              		.loc 1 775 0
 3850 16bc 1221     		mov	r1, #18
 3851 16be 0820     		mov	r0, #8
 3852 16c0 FFF7FEFF 		bl	lcdGotoxy
 3853              		.loc 1 776 0
 3854 16c4 1948     		ldr	r0, .L376+64
 3855 16c6 FFF7FEFF 		bl	lcdPuts
 3856              		.loc 1 778 0
 3857 16ca FFF7FEFF 		bl	activateBtProc
 3858              		.loc 1 779 0
 3859 16ce 33B0     		add	sp, sp, #204
 3860              		@ sp needed for prologue
 3861              	.LVL162:
 3862              	.LVL163:
 3863              	.LVL164:
 3864 16d0 F0BC     		pop	{r4, r5, r6, r7}
 3865 16d2 01BC     		pop	{r0}
 3866 16d4 0047     		bx	r0
 3867              	.LVL165:
 3868              	.L262:
 3869              	.LBB67:
 3870              		.loc 1 643 0
 3871 16d6 002F     		cmp	r7, #0
 3872 16d8 01D1     		bne	.LCB3887
 3873 16da FFF7D5FB 		bl	.L361	@far jump
 3874              	.LCB3887:
 3875 16de CFE7     		b	.L214
 3876              	.LVL166:
 3877              	.L352:
 3878 16e0 0124     		mov	r4, #1
 3879 16e2 2094     		str	r4, [sp, #128]
 3880              	.L351:
 3881 16e4 209D     		ldr	r5, [sp, #128]
 3882 16e6 0F95     		str	r5, [sp, #60]
 3883 16e8 CDE7     		b	.L353
ARM GAS  /cygdrive/c/DOCUME~1/mkwapisz/LOCALS~1/Temp/ccwCXJbO.s 			page 95


 3884              	.L377:
 3885 16ea 0000     		.align	2
 3886              	.L376:
 3887 16ec 00000040 		.word	1073741824
 3888 16f0 00000000 		.word	0
 3889 16f4 9999E93F 		.word	1072273817
 3890 16f8 9A999999 		.word	-1717986918
 3891 16fc 28000000 		.word	ball
 3892 1700 00000000 		.word	0
 3893 1704 00000000 		.word	0
 3894 1708 10000000 		.word	player2
 3895 170c 00206040 		.word	1080041472
 3896 1710 00000000 		.word	0
 3897 1714 00000000 		.word	player1
 3898 1718 00000000 		.word	ms
 3899 171c 04000000 		.word	lastMove
 3900 1720 20020000 		.word	.LC165
 3901 1724 08020000 		.word	.LC156
 3902 1728 14020000 		.word	.LC163
 3903 172c 30020000 		.word	.LC167
 3904              	.LBE67:
 3905              	.LFE9:
 3906              		.size	playPong, .-playPong
 3907              		.data
 3908              		.align	2
 3909              		.type	player1, %object
 3910              		.size	player1, 16
 3911              	player1:
 3912 0000 00       		.byte	0
 3913 0001 41       		.byte	65
 3914 0002 10       		.byte	16
 3915 0003 00       		.byte	0
 3916 0004 E0       		.byte	-32
 3917 0005 00       		.byte	0
 3918 0006 00000000 		.space	10
 3918      00000000 
 3918      0000
 3919              		.align	2
 3920              		.type	player2, %object
 3921              		.size	player2, 16
 3922              	player2:
 3923 0010 7E       		.byte	126
 3924 0011 41       		.byte	65
 3925 0012 10       		.byte	16
 3926 0013 00       		.byte	0
 3927 0014 1C       		.byte	28
 3928 0015 01       		.byte	1
 3929 0016 00000000 		.space	10
 3929      00000000 
 3929      0000
 3930              		.align	2
 3931              		.type	pActivePlayer, %object
 3932              		.size	pActivePlayer, 4
 3933              	pActivePlayer:
 3934 0020 00000000 		.word	player1
 3935              		.bss
 3936              	remoteClientKey:
ARM GAS  /cygdrive/c/DOCUME~1/mkwapisz/LOCALS~1/Temp/ccwCXJbO.s 			page 96


 3937 0000 00       		.space	1
 3938              		.data
 3939              		.align	2
 3940              		.type	pServingPlayer, %object
 3941              		.size	pServingPlayer, 4
 3942              	pServingPlayer:
 3943 0024 00000000 		.word	player1
 3944              		.align	2
 3945              		.type	ball, %object
 3946              		.size	ball, 52
 3947              	ball:
 3948 0028 00000000 		.word	0
 3949 002c 00000000 		.word	0
 3950 0030 00000000 		.word	0
 3951 0034 00000000 		.word	0
 3952 0038 02       		.byte	2
 3953 0039 FF       		.byte	-1
 3954 003a 0000     		.space	2
 3955 003c CCCC0440 		.word	1074056396
 3956 0040 CDCCCCCC 		.word	-858993459
 3957 0044 0000F03F 		.word	1072693248
 3958 0048 00000000 		.word	0
 3959 004c 00000000 		.space	16
 3959      00000000 
 3959      00000000 
 3959      00000000 
 3960              		.type	serving, %object
 3961              		.size	serving, 1
 3962              	serving:
 3963 005c 01       		.byte	1
 3964 005d 000000   		.bss
 3965 0001 000000   		.align	2
 3966              	lastMove:
 3967 0004 00000000 		.space	4
 3968              		.align	2
 3969              	lastStatus:
 3970 0008 00000000 		.space	4
 3971              		.section	.rodata
 3972              		.type	toHex.3480, %object
 3973              		.size	toHex.3480, 16
 3974              	toHex.3480:
 3975 0000 30       		.byte	48
 3976 0001 31       		.byte	49
 3977 0002 32       		.byte	50
 3978 0003 33       		.byte	51
 3979 0004 34       		.byte	52
 3980 0005 35       		.byte	53
 3981 0006 36       		.byte	54
 3982 0007 37       		.byte	55
 3983 0008 38       		.byte	56
 3984 0009 39       		.byte	57
 3985 000a 41       		.byte	65
 3986 000b 42       		.byte	66
 3987 000c 43       		.byte	67
 3988 000d 44       		.byte	68
 3989 000e 45       		.byte	69
 3990 000f 46       		.byte	70
ARM GAS  /cygdrive/c/DOCUME~1/mkwapisz/LOCALS~1/Temp/ccwCXJbO.s 			page 97


 3991              		.bss
 3992              		.align	2
 3993              	foundBtUnits:
 3994 000c 00000000 		.space	160
 3994      00000000 
 3994      00000000 
 3994      00000000 
 3994      00000000 
 3995              	gameType:
 3996 00ac 00       		.space	1
 3997              	recvPos:
 3998 00ad 00       		.space	1
 3999              	recvBuf:
 4000 00ae 00000000 		.space	40
 4000      00000000 
 4000      00000000 
 4000      00000000 
 4000      00000000 
 4001 00d6 0000     		.section	.debug_frame,"",%progbits
 4002              	.Lframe0:
 4003 0000 0C000000 		.4byte	.LECIE0-.LSCIE0
 4004              	.LSCIE0:
 4005 0004 FFFFFFFF 		.4byte	0xffffffff
 4006 0008 01       		.byte	0x1
 4007 0009 00       		.ascii	"\000"
 4008 000a 01       		.uleb128 0x1
 4009 000b 7C       		.sleb128 -4
 4010 000c 0E       		.byte	0xe
 4011 000d 0C       		.byte	0xc
 4012 000e 0D       		.uleb128 0xd
 4013 000f 00       		.uleb128 0x0
 4014              		.align	2
 4015              	.LECIE0:
 4016              	.LSFDE0:
 4017 0010 0C000000 		.4byte	.LEFDE0-.LASFDE0
 4018              	.LASFDE0:
 4019 0014 00000000 		.4byte	.Lframe0
 4020 0018 00000000 		.4byte	.LFB13
 4021 001c 18000000 		.4byte	.LFE13-.LFB13
 4022              		.align	2
 4023              	.LEFDE0:
 4024              	.LSFDE2:
 4025 0020 14000000 		.4byte	.LEFDE2-.LASFDE2
 4026              	.LASFDE2:
 4027 0024 00000000 		.4byte	.Lframe0
 4028 0028 18000000 		.4byte	.LFB14
 4029 002c 68000000 		.4byte	.LFE14-.LFB14
 4030 0030 42       		.byte	0x4
 4031              		.4byte	.LCFI0-.LFB14
 4032 0031 0E       		.byte	0xe
 4033 0032 08       		.uleb128 0x8
 4034 0033 84       		.byte	0x84
 4035 0034 02       		.uleb128 0x2
 4036 0035 8E       		.byte	0x8e
 4037 0036 01       		.uleb128 0x1
 4038 0037 00       		.align	2
 4039              	.LEFDE2:
ARM GAS  /cygdrive/c/DOCUME~1/mkwapisz/LOCALS~1/Temp/ccwCXJbO.s 			page 98


 4040              	.LSFDE4:
 4041 0038 18000000 		.4byte	.LEFDE4-.LASFDE4
 4042              	.LASFDE4:
 4043 003c 00000000 		.4byte	.Lframe0
 4044 0040 80000000 		.4byte	.LFB2
 4045 0044 1E000000 		.4byte	.LFE2-.LFB2
 4046 0048 42       		.byte	0x4
 4047              		.4byte	.LCFI1-.LFB2
 4048 0049 0E       		.byte	0xe
 4049 004a 08       		.uleb128 0x8
 4050 004b 84       		.byte	0x84
 4051 004c 02       		.uleb128 0x2
 4052 004d 8E       		.byte	0x8e
 4053 004e 01       		.uleb128 0x1
 4054 004f 46       		.byte	0x4
 4055              		.4byte	.LCFI2-.LCFI1
 4056 0050 0E       		.byte	0xe
 4057 0051 0C       		.uleb128 0xc
 4058 0052 0000     		.align	2
 4059              	.LEFDE4:
 4060              	.LSFDE6:
 4061 0054 18000000 		.4byte	.LEFDE6-.LASFDE6
 4062              	.LASFDE6:
 4063 0058 00000000 		.4byte	.Lframe0
 4064 005c A0000000 		.4byte	.LFB7
 4065 0060 CC000000 		.4byte	.LFE7-.LFB7
 4066 0064 42       		.byte	0x4
 4067              		.4byte	.LCFI3-.LFB7
 4068 0065 0E       		.byte	0xe
 4069 0066 08       		.uleb128 0x8
 4070 0067 84       		.byte	0x84
 4071 0068 02       		.uleb128 0x2
 4072 0069 8E       		.byte	0x8e
 4073 006a 01       		.uleb128 0x1
 4074 006b 46       		.byte	0x4
 4075              		.4byte	.LCFI4-.LCFI3
 4076 006c 0E       		.byte	0xe
 4077 006d 0C       		.uleb128 0xc
 4078 006e 0000     		.align	2
 4079              	.LEFDE6:
 4080              	.LSFDE8:
 4081 0070 1C000000 		.4byte	.LEFDE8-.LASFDE8
 4082              	.LASFDE8:
 4083 0074 00000000 		.4byte	.Lframe0
 4084 0078 6C010000 		.4byte	.LFB17
 4085 007c 68000000 		.4byte	.LFE17-.LFB17
 4086 0080 42       		.byte	0x4
 4087              		.4byte	.LCFI5-.LFB17
 4088 0081 0E       		.byte	0xe
 4089 0082 14       		.uleb128 0x14
 4090 0083 84       		.byte	0x84
 4091 0084 05       		.uleb128 0x5
 4092 0085 85       		.byte	0x85
 4093 0086 04       		.uleb128 0x4
 4094 0087 86       		.byte	0x86
 4095 0088 03       		.uleb128 0x3
 4096 0089 87       		.byte	0x87
ARM GAS  /cygdrive/c/DOCUME~1/mkwapisz/LOCALS~1/Temp/ccwCXJbO.s 			page 99


 4097 008a 02       		.uleb128 0x2
 4098 008b 8E       		.byte	0x8e
 4099 008c 01       		.uleb128 0x1
 4100 008d 000000   		.align	2
 4101              	.LEFDE8:
 4102              	.LSFDE10:
 4103 0090 1C000000 		.4byte	.LEFDE10-.LASFDE10
 4104              	.LASFDE10:
 4105 0094 00000000 		.4byte	.Lframe0
 4106 0098 D4010000 		.4byte	.LFB3
 4107 009c C8000000 		.4byte	.LFE3-.LFB3
 4108 00a0 42       		.byte	0x4
 4109              		.4byte	.LCFI6-.LFB3
 4110 00a1 0E       		.byte	0xe
 4111 00a2 14       		.uleb128 0x14
 4112 00a3 84       		.byte	0x84
 4113 00a4 05       		.uleb128 0x5
 4114 00a5 85       		.byte	0x85
 4115 00a6 04       		.uleb128 0x4
 4116 00a7 86       		.byte	0x86
 4117 00a8 03       		.uleb128 0x3
 4118 00a9 87       		.byte	0x87
 4119 00aa 02       		.uleb128 0x2
 4120 00ab 8E       		.byte	0x8e
 4121 00ac 01       		.uleb128 0x1
 4122 00ad 46       		.byte	0x4
 4123              		.4byte	.LCFI7-.LCFI6
 4124 00ae 0E       		.byte	0xe
 4125 00af 18       		.uleb128 0x18
 4126              		.align	2
 4127              	.LEFDE10:
 4128              	.LSFDE12:
 4129 00b0 18000000 		.4byte	.LEFDE12-.LASFDE12
 4130              	.LASFDE12:
 4131 00b4 00000000 		.4byte	.Lframe0
 4132 00b8 9C020000 		.4byte	.LFB5
 4133 00bc 68000000 		.4byte	.LFE5-.LFB5
 4134 00c0 42       		.byte	0x4
 4135              		.4byte	.LCFI8-.LFB5
 4136 00c1 0E       		.byte	0xe
 4137 00c2 0C       		.uleb128 0xc
 4138 00c3 84       		.byte	0x84
 4139 00c4 03       		.uleb128 0x3
 4140 00c5 85       		.byte	0x85
 4141 00c6 02       		.uleb128 0x2
 4142 00c7 8E       		.byte	0x8e
 4143 00c8 01       		.uleb128 0x1
 4144 00c9 000000   		.align	2
 4145              	.LEFDE12:
 4146              	.LSFDE14:
 4147 00cc 1C000000 		.4byte	.LEFDE14-.LASFDE14
 4148              	.LASFDE14:
 4149 00d0 00000000 		.4byte	.Lframe0
 4150 00d4 04030000 		.4byte	.LFB18
 4151 00d8 A8030000 		.4byte	.LFE18-.LFB18
 4152 00dc 42       		.byte	0x4
 4153              		.4byte	.LCFI9-.LFB18
ARM GAS  /cygdrive/c/DOCUME~1/mkwapisz/LOCALS~1/Temp/ccwCXJbO.s 			page 100


 4154 00dd 0E       		.byte	0xe
 4155 00de 14       		.uleb128 0x14
 4156 00df 84       		.byte	0x84
 4157 00e0 05       		.uleb128 0x5
 4158 00e1 85       		.byte	0x85
 4159 00e2 04       		.uleb128 0x4
 4160 00e3 86       		.byte	0x86
 4161 00e4 03       		.uleb128 0x3
 4162 00e5 87       		.byte	0x87
 4163 00e6 02       		.uleb128 0x2
 4164 00e7 8E       		.byte	0x8e
 4165 00e8 01       		.uleb128 0x1
 4166 00e9 44       		.byte	0x4
 4167              		.4byte	.LCFI10-.LCFI9
 4168 00ea 0E       		.byte	0xe
 4169 00eb 54       		.uleb128 0x54
 4170              		.align	2
 4171              	.LEFDE14:
 4172              	.LSFDE16:
 4173 00ec 18000000 		.4byte	.LEFDE16-.LASFDE16
 4174              	.LASFDE16:
 4175 00f0 00000000 		.4byte	.Lframe0
 4176 00f4 AC060000 		.4byte	.LFB8
 4177 00f8 22000000 		.4byte	.LFE8-.LFB8
 4178 00fc 42       		.byte	0x4
 4179              		.4byte	.LCFI11-.LFB8
 4180 00fd 0E       		.byte	0xe
 4181 00fe 0C       		.uleb128 0xc
 4182 00ff 84       		.byte	0x84
 4183 0100 03       		.uleb128 0x3
 4184 0101 85       		.byte	0x85
 4185 0102 02       		.uleb128 0x2
 4186 0103 8E       		.byte	0x8e
 4187 0104 01       		.uleb128 0x1
 4188 0105 000000   		.align	2
 4189              	.LEFDE16:
 4190              	.LSFDE18:
 4191 0108 14000000 		.4byte	.LEFDE18-.LASFDE18
 4192              	.LASFDE18:
 4193 010c 00000000 		.4byte	.Lframe0
 4194 0110 D0060000 		.4byte	.LFB4
 4195 0114 40000000 		.4byte	.LFE4-.LFB4
 4196 0118 42       		.byte	0x4
 4197              		.4byte	.LCFI12-.LFB4
 4198 0119 0E       		.byte	0xe
 4199 011a 04       		.uleb128 0x4
 4200 011b 8E       		.byte	0x8e
 4201 011c 01       		.uleb128 0x1
 4202 011d 42       		.byte	0x4
 4203              		.4byte	.LCFI13-.LCFI12
 4204 011e 0E       		.byte	0xe
 4205 011f 08       		.uleb128 0x8
 4206              		.align	2
 4207              	.LEFDE18:
 4208              	.LSFDE20:
 4209 0120 1C000000 		.4byte	.LEFDE20-.LASFDE20
 4210              	.LASFDE20:
ARM GAS  /cygdrive/c/DOCUME~1/mkwapisz/LOCALS~1/Temp/ccwCXJbO.s 			page 101


 4211 0124 00000000 		.4byte	.Lframe0
 4212 0128 10070000 		.4byte	.LFB16
 4213 012c 14020000 		.4byte	.LFE16-.LFB16
 4214 0130 42       		.byte	0x4
 4215              		.4byte	.LCFI14-.LFB16
 4216 0131 0E       		.byte	0xe
 4217 0132 14       		.uleb128 0x14
 4218 0133 84       		.byte	0x84
 4219 0134 05       		.uleb128 0x5
 4220 0135 85       		.byte	0x85
 4221 0136 04       		.uleb128 0x4
 4222 0137 86       		.byte	0x86
 4223 0138 03       		.uleb128 0x3
 4224 0139 87       		.byte	0x87
 4225 013a 02       		.uleb128 0x2
 4226 013b 8E       		.byte	0x8e
 4227 013c 01       		.uleb128 0x1
 4228 013d 42       		.byte	0x4
 4229              		.4byte	.LCFI15-.LCFI14
 4230 013e 0E       		.byte	0xe
 4231 013f 38       		.uleb128 0x38
 4232              		.align	2
 4233              	.LEFDE20:
 4234              	.LSFDE22:
 4235 0140 20000000 		.4byte	.LEFDE22-.LASFDE22
 4236              	.LASFDE22:
 4237 0144 00000000 		.4byte	.Lframe0
 4238 0148 24090000 		.4byte	.LFB9
 4239 014c 0C0E0000 		.4byte	.LFE9-.LFB9
 4240 0150 42       		.byte	0x4
 4241              		.4byte	.LCFI16-.LFB9
 4242 0151 0E       		.byte	0xe
 4243 0152 14       		.uleb128 0x14
 4244 0153 84       		.byte	0x84
 4245 0154 05       		.uleb128 0x5
 4246 0155 85       		.byte	0x85
 4247 0156 04       		.uleb128 0x4
 4248 0157 86       		.byte	0x86
 4249 0158 03       		.uleb128 0x3
 4250 0159 87       		.byte	0x87
 4251 015a 02       		.uleb128 0x2
 4252 015b 8E       		.byte	0x8e
 4253 015c 01       		.uleb128 0x1
 4254 015d 42       		.byte	0x4
 4255              		.4byte	.LCFI17-.LCFI16
 4256 015e 0E       		.byte	0xe
 4257 015f E001     		.uleb128 0xe0
 4258 0161 000000   		.align	2
 4259              	.LEFDE22:
 4260              		.file 2 "./startup/../pre_emptive_os/api/../api/general.h"
 4261              		.file 3 "select.h"
 4262              		.text
 4263              	.Letext0:
 4264              		.section	.debug_loc,"",%progbits
 4265              	.Ldebug_loc0:
 4266              	.LLST1:
 4267 0000 00000000 		.4byte	.LVL0-.Ltext0
ARM GAS  /cygdrive/c/DOCUME~1/mkwapisz/LOCALS~1/Temp/ccwCXJbO.s 			page 102


 4268 0004 04000000 		.4byte	.LVL1-.Ltext0
 4269 0008 0100     		.2byte	0x1
 4270 000a 51       		.byte	0x51
 4271 000b 00000000 		.4byte	0x0
 4272 000f 00000000 		.4byte	0x0
 4273              	.LLST2:
 4274 0013 18000000 		.4byte	.LFB14-.Ltext0
 4275 0017 1A000000 		.4byte	.LCFI0-.Ltext0
 4276 001b 0100     		.2byte	0x1
 4277 001d 5D       		.byte	0x5d
 4278 001e 1A000000 		.4byte	.LCFI0-.Ltext0
 4279 0022 80000000 		.4byte	.LFE14-.Ltext0
 4280 0026 0200     		.2byte	0x2
 4281 0028 7D       		.byte	0x7d
 4282 0029 08       		.sleb128 8
 4283 002a 00000000 		.4byte	0x0
 4284 002e 00000000 		.4byte	0x0
 4285              	.LLST3:
 4286 0032 1A000000 		.4byte	.LVL2-.Ltext0
 4287 0036 48000000 		.4byte	.LVL11-.Ltext0
 4288 003a 0100     		.2byte	0x1
 4289 003c 50       		.byte	0x50
 4290 003d 00000000 		.4byte	0x0
 4291 0041 00000000 		.4byte	0x0
 4292              	.LLST4:
 4293 0045 1A000000 		.4byte	.LVL2-.Ltext0
 4294 0049 2A000000 		.4byte	.LVL4-.Ltext0
 4295 004d 0100     		.2byte	0x1
 4296 004f 51       		.byte	0x51
 4297 0050 2A000000 		.4byte	.LVL4-.Ltext0
 4298 0054 7A000000 		.4byte	.LVL14-.Ltext0
 4299 0058 0100     		.2byte	0x1
 4300 005a 54       		.byte	0x54
 4301 005b 00000000 		.4byte	0x0
 4302 005f 00000000 		.4byte	0x0
 4303              	.LLST5:
 4304 0063 24000000 		.4byte	.LVL3-.Ltext0
 4305 0067 2C000000 		.4byte	.LVL5-.Ltext0
 4306 006b 0100     		.2byte	0x1
 4307 006d 53       		.byte	0x53
 4308 006e 38000000 		.4byte	.LVL6-.Ltext0
 4309 0072 3C000000 		.4byte	.LVL8-.Ltext0
 4310 0076 0100     		.2byte	0x1
 4311 0078 53       		.byte	0x53
 4312 0079 44000000 		.4byte	.LVL9-.Ltext0
 4313 007d 4A000000 		.4byte	.LVL12-.Ltext0
 4314 0081 0100     		.2byte	0x1
 4315 0083 53       		.byte	0x53
 4316 0084 4C000000 		.4byte	.LVL13-.Ltext0
 4317 0088 80000000 		.4byte	.LFE14-.Ltext0
 4318 008c 0100     		.2byte	0x1
 4319 008e 52       		.byte	0x52
 4320 008f 00000000 		.4byte	0x0
 4321 0093 00000000 		.4byte	0x0
 4322              	.LLST6:
 4323 0097 3A000000 		.4byte	.LVL7-.Ltext0
 4324 009b 3C000000 		.4byte	.LVL8-.Ltext0
ARM GAS  /cygdrive/c/DOCUME~1/mkwapisz/LOCALS~1/Temp/ccwCXJbO.s 			page 103


 4325 009f 0100     		.2byte	0x1
 4326 00a1 51       		.byte	0x51
 4327 00a2 46000000 		.4byte	.LVL10-.Ltext0
 4328 00a6 80000000 		.4byte	.LFE14-.Ltext0
 4329 00aa 0100     		.2byte	0x1
 4330 00ac 51       		.byte	0x51
 4331 00ad 00000000 		.4byte	0x0
 4332 00b1 00000000 		.4byte	0x0
 4333              	.LLST7:
 4334 00b5 80000000 		.4byte	.LFB2-.Ltext0
 4335 00b9 82000000 		.4byte	.LCFI1-.Ltext0
 4336 00bd 0100     		.2byte	0x1
 4337 00bf 5D       		.byte	0x5d
 4338 00c0 82000000 		.4byte	.LCFI1-.Ltext0
 4339 00c4 88000000 		.4byte	.LCFI2-.Ltext0
 4340 00c8 0200     		.2byte	0x2
 4341 00ca 7D       		.byte	0x7d
 4342 00cb 08       		.sleb128 8
 4343 00cc 88000000 		.4byte	.LCFI2-.Ltext0
 4344 00d0 9E000000 		.4byte	.LFE2-.Ltext0
 4345 00d4 0200     		.2byte	0x2
 4346 00d6 7D       		.byte	0x7d
 4347 00d7 0C       		.sleb128 12
 4348 00d8 00000000 		.4byte	0x0
 4349 00dc 00000000 		.4byte	0x0
 4350              	.LLST8:
 4351 00e0 82000000 		.4byte	.LVL15-.Ltext0
 4352 00e4 90000000 		.4byte	.LVL16-.Ltext0
 4353 00e8 0100     		.2byte	0x1
 4354 00ea 50       		.byte	0x50
 4355 00eb 00000000 		.4byte	0x0
 4356 00ef 00000000 		.4byte	0x0
 4357              	.LLST9:
 4358 00f3 A0000000 		.4byte	.LFB7-.Ltext0
 4359 00f7 A2000000 		.4byte	.LCFI3-.Ltext0
 4360 00fb 0100     		.2byte	0x1
 4361 00fd 5D       		.byte	0x5d
 4362 00fe A2000000 		.4byte	.LCFI3-.Ltext0
 4363 0102 A8000000 		.4byte	.LCFI4-.Ltext0
 4364 0106 0200     		.2byte	0x2
 4365 0108 7D       		.byte	0x7d
 4366 0109 08       		.sleb128 8
 4367 010a A8000000 		.4byte	.LCFI4-.Ltext0
 4368 010e 6C010000 		.4byte	.LFE7-.Ltext0
 4369 0112 0200     		.2byte	0x2
 4370 0114 7D       		.byte	0x7d
 4371 0115 0C       		.sleb128 12
 4372 0116 00000000 		.4byte	0x0
 4373 011a 00000000 		.4byte	0x0
 4374              	.LLST10:
 4375 011e A2000000 		.4byte	.LVL17-.Ltext0
 4376 0122 AE000000 		.4byte	.LVL20-.Ltext0
 4377 0126 0100     		.2byte	0x1
 4378 0128 50       		.byte	0x50
 4379 0129 AE000000 		.4byte	.LVL20-.Ltext0
 4380 012d 50010000 		.4byte	.LVL25-.Ltext0
 4381 0131 0100     		.2byte	0x1
ARM GAS  /cygdrive/c/DOCUME~1/mkwapisz/LOCALS~1/Temp/ccwCXJbO.s 			page 104


 4382 0133 54       		.byte	0x54
 4383 0134 50010000 		.4byte	.LVL25-.Ltext0
 4384 0138 6C010000 		.4byte	.LFE7-.Ltext0
 4385 013c 0100     		.2byte	0x1
 4386 013e 50       		.byte	0x50
 4387 013f 00000000 		.4byte	0x0
 4388 0143 00000000 		.4byte	0x0
 4389              	.LLST11:
 4390 0147 A2000000 		.4byte	.LVL17-.Ltext0
 4391 014b A4000000 		.4byte	.LVL18-.Ltext0
 4392 014f 0100     		.2byte	0x1
 4393 0151 51       		.byte	0x51
 4394 0152 A6000000 		.4byte	.LVL19-.Ltext0
 4395 0156 26010000 		.4byte	.LVL21-.Ltext0
 4396 015a 0100     		.2byte	0x1
 4397 015c 51       		.byte	0x51
 4398 015d 2C010000 		.4byte	.LVL22-.Ltext0
 4399 0161 32010000 		.4byte	.LVL23-.Ltext0
 4400 0165 0100     		.2byte	0x1
 4401 0167 51       		.byte	0x51
 4402 0168 4E010000 		.4byte	.LVL24-.Ltext0
 4403 016c 6C010000 		.4byte	.LFE7-.Ltext0
 4404 0170 0100     		.2byte	0x1
 4405 0172 51       		.byte	0x51
 4406 0173 00000000 		.4byte	0x0
 4407 0177 00000000 		.4byte	0x0
 4408              	.LLST12:
 4409 017b 6C010000 		.4byte	.LFB17-.Ltext0
 4410 017f 6E010000 		.4byte	.LCFI5-.Ltext0
 4411 0183 0100     		.2byte	0x1
 4412 0185 5D       		.byte	0x5d
 4413 0186 6E010000 		.4byte	.LCFI5-.Ltext0
 4414 018a D4010000 		.4byte	.LFE17-.Ltext0
 4415 018e 0200     		.2byte	0x2
 4416 0190 7D       		.byte	0x7d
 4417 0191 14       		.sleb128 20
 4418 0192 00000000 		.4byte	0x0
 4419 0196 00000000 		.4byte	0x0
 4420              	.LLST13:
 4421 019a 6E010000 		.4byte	.LVL26-.Ltext0
 4422 019e 70010000 		.4byte	.LVL27-.Ltext0
 4423 01a2 0100     		.2byte	0x1
 4424 01a4 50       		.byte	0x50
 4425 01a5 74010000 		.4byte	.LVL28-.Ltext0
 4426 01a9 C4010000 		.4byte	.LVL31-.Ltext0
 4427 01ad 0100     		.2byte	0x1
 4428 01af 57       		.byte	0x57
 4429 01b0 00000000 		.4byte	0x0
 4430 01b4 00000000 		.4byte	0x0
 4431              	.LLST14:
 4432 01b8 76010000 		.4byte	.LVL29-.Ltext0
 4433 01bc C4010000 		.4byte	.LVL30-.Ltext0
 4434 01c0 0100     		.2byte	0x1
 4435 01c2 55       		.byte	0x55
 4436 01c3 00000000 		.4byte	0x0
 4437 01c7 00000000 		.4byte	0x0
 4438              	.LLST15:
ARM GAS  /cygdrive/c/DOCUME~1/mkwapisz/LOCALS~1/Temp/ccwCXJbO.s 			page 105


 4439 01cb D4010000 		.4byte	.LFB3-.Ltext0
 4440 01cf D6010000 		.4byte	.LCFI6-.Ltext0
 4441 01d3 0100     		.2byte	0x1
 4442 01d5 5D       		.byte	0x5d
 4443 01d6 D6010000 		.4byte	.LCFI6-.Ltext0
 4444 01da DC010000 		.4byte	.LCFI7-.Ltext0
 4445 01de 0200     		.2byte	0x2
 4446 01e0 7D       		.byte	0x7d
 4447 01e1 14       		.sleb128 20
 4448 01e2 DC010000 		.4byte	.LCFI7-.Ltext0
 4449 01e6 9C020000 		.4byte	.LFE3-.Ltext0
 4450 01ea 0200     		.2byte	0x2
 4451 01ec 7D       		.byte	0x7d
 4452 01ed 18       		.sleb128 24
 4453 01ee 00000000 		.4byte	0x0
 4454 01f2 00000000 		.4byte	0x0
 4455              	.LLST16:
 4456 01f6 9C020000 		.4byte	.LFB5-.Ltext0
 4457 01fa 9E020000 		.4byte	.LCFI8-.Ltext0
 4458 01fe 0100     		.2byte	0x1
 4459 0200 5D       		.byte	0x5d
 4460 0201 9E020000 		.4byte	.LCFI8-.Ltext0
 4461 0205 04030000 		.4byte	.LFE5-.Ltext0
 4462 0209 0200     		.2byte	0x2
 4463 020b 7D       		.byte	0x7d
 4464 020c 0C       		.sleb128 12
 4465 020d 00000000 		.4byte	0x0
 4466 0211 00000000 		.4byte	0x0
 4467              	.LLST17:
 4468 0215 9E020000 		.4byte	.LVL32-.Ltext0
 4469 0219 C8020000 		.4byte	.LVL33-.Ltext0
 4470 021d 0100     		.2byte	0x1
 4471 021f 50       		.byte	0x50
 4472 0220 C8020000 		.4byte	.LVL33-.Ltext0
 4473 0224 D2020000 		.4byte	.LVL34-.Ltext0
 4474 0228 0100     		.2byte	0x1
 4475 022a 55       		.byte	0x55
 4476 022b 00000000 		.4byte	0x0
 4477 022f 00000000 		.4byte	0x0
 4478              	.LLST18:
 4479 0233 04030000 		.4byte	.LFB18-.Ltext0
 4480 0237 06030000 		.4byte	.LCFI9-.Ltext0
 4481 023b 0100     		.2byte	0x1
 4482 023d 5D       		.byte	0x5d
 4483 023e 06030000 		.4byte	.LCFI9-.Ltext0
 4484 0242 0A030000 		.4byte	.LCFI10-.Ltext0
 4485 0246 0200     		.2byte	0x2
 4486 0248 7D       		.byte	0x7d
 4487 0249 14       		.sleb128 20
 4488 024a 0A030000 		.4byte	.LCFI10-.Ltext0
 4489 024e AC060000 		.4byte	.LFE18-.Ltext0
 4490 0252 0300     		.2byte	0x3
 4491 0254 7D       		.byte	0x7d
 4492 0255 D400     		.sleb128 84
 4493 0257 00000000 		.4byte	0x0
 4494 025b 00000000 		.4byte	0x0
 4495              	.LLST19:
ARM GAS  /cygdrive/c/DOCUME~1/mkwapisz/LOCALS~1/Temp/ccwCXJbO.s 			page 106


 4496 025f 06030000 		.4byte	.LVL35-.Ltext0
 4497 0263 10030000 		.4byte	.LVL36-.Ltext0
 4498 0267 0100     		.2byte	0x1
 4499 0269 50       		.byte	0x50
 4500 026a 10030000 		.4byte	.LVL36-.Ltext0
 4501 026e AC060000 		.4byte	.LFE18-.Ltext0
 4502 0272 0200     		.2byte	0x2
 4503 0274 91       		.byte	0x91
 4504 0275 44       		.sleb128 -60
 4505 0276 00000000 		.4byte	0x0
 4506 027a 00000000 		.4byte	0x0
 4507              	.LLST20:
 4508 027e 72030000 		.4byte	.LVL41-.Ltext0
 4509 0282 74030000 		.4byte	.LVL42-.Ltext0
 4510 0286 0100     		.2byte	0x1
 4511 0288 54       		.byte	0x54
 4512 0289 F6030000 		.4byte	.LVL43-.Ltext0
 4513 028d F8030000 		.4byte	.LVL44-.Ltext0
 4514 0291 0100     		.2byte	0x1
 4515 0293 54       		.byte	0x54
 4516 0294 08040000 		.4byte	.LVL45-.Ltext0
 4517 0298 0A040000 		.4byte	.LVL46-.Ltext0
 4518 029c 0100     		.2byte	0x1
 4519 029e 54       		.byte	0x54
 4520 029f 0C040000 		.4byte	.LVL47-.Ltext0
 4521 02a3 A8040000 		.4byte	.LVL50-.Ltext0
 4522 02a7 0100     		.2byte	0x1
 4523 02a9 54       		.byte	0x54
 4524 02aa E4040000 		.4byte	.LVL52-.Ltext0
 4525 02ae E6040000 		.4byte	.LVL53-.Ltext0
 4526 02b2 0100     		.2byte	0x1
 4527 02b4 54       		.byte	0x54
 4528 02b5 2A050000 		.4byte	.LVL54-.Ltext0
 4529 02b9 2C050000 		.4byte	.LVL55-.Ltext0
 4530 02bd 0100     		.2byte	0x1
 4531 02bf 54       		.byte	0x54
 4532 02c0 2E050000 		.4byte	.LVL56-.Ltext0
 4533 02c4 CC050000 		.4byte	.LVL58-.Ltext0
 4534 02c8 0100     		.2byte	0x1
 4535 02ca 54       		.byte	0x54
 4536 02cb 00000000 		.4byte	0x0
 4537 02cf 00000000 		.4byte	0x0
 4538              	.LLST21:
 4539 02d3 82040000 		.4byte	.LVL48-.Ltext0
 4540 02d7 A0060000 		.4byte	.LVL68-.Ltext0
 4541 02db 0100     		.2byte	0x1
 4542 02dd 57       		.byte	0x57
 4543 02de 00000000 		.4byte	0x0
 4544 02e2 00000000 		.4byte	0x0
 4545              	.LLST22:
 4546 02e6 D0050000 		.4byte	.LVL59-.Ltext0
 4547 02ea FC050000 		.4byte	.LVL60-.Ltext0
 4548 02ee 0100     		.2byte	0x1
 4549 02f0 50       		.byte	0x50
 4550 02f1 00060000 		.4byte	.LVL61-.Ltext0
 4551 02f5 02060000 		.4byte	.LVL62-.Ltext0
 4552 02f9 0100     		.2byte	0x1
ARM GAS  /cygdrive/c/DOCUME~1/mkwapisz/LOCALS~1/Temp/ccwCXJbO.s 			page 107


 4553 02fb 50       		.byte	0x50
 4554 02fc 8C060000 		.4byte	.LVL63-.Ltext0
 4555 0300 8E060000 		.4byte	.LVL64-.Ltext0
 4556 0304 0100     		.2byte	0x1
 4557 0306 50       		.byte	0x50
 4558 0307 00000000 		.4byte	0x0
 4559 030b 00000000 		.4byte	0x0
 4560              	.LLST23:
 4561 030f CC050000 		.4byte	.LVL58-.Ltext0
 4562 0313 A0060000 		.4byte	.LVL65-.Ltext0
 4563 0317 0100     		.2byte	0x1
 4564 0319 54       		.byte	0x54
 4565 031a 00000000 		.4byte	0x0
 4566 031e 00000000 		.4byte	0x0
 4567              	.LLST24:
 4568 0322 6A030000 		.4byte	.LVL37-.Ltext0
 4569 0326 84040000 		.4byte	.LVL49-.Ltext0
 4570 032a 0100     		.2byte	0x1
 4571 032c 55       		.byte	0x55
 4572 032d 84040000 		.4byte	.LVL49-.Ltext0
 4573 0331 B2040000 		.4byte	.LVL51-.Ltext0
 4574 0335 0100     		.2byte	0x1
 4575 0337 56       		.byte	0x56
 4576 0338 92050000 		.4byte	.LVL57-.Ltext0
 4577 033c A0060000 		.4byte	.LVL66-.Ltext0
 4578 0340 0100     		.2byte	0x1
 4579 0342 55       		.byte	0x55
 4580 0343 00000000 		.4byte	0x0
 4581 0347 00000000 		.4byte	0x0
 4582              	.LLST25:
 4583 034b AC060000 		.4byte	.LFB8-.Ltext0
 4584 034f AE060000 		.4byte	.LCFI11-.Ltext0
 4585 0353 0100     		.2byte	0x1
 4586 0355 5D       		.byte	0x5d
 4587 0356 AE060000 		.4byte	.LCFI11-.Ltext0
 4588 035a CE060000 		.4byte	.LFE8-.Ltext0
 4589 035e 0200     		.2byte	0x2
 4590 0360 7D       		.byte	0x7d
 4591 0361 0C       		.sleb128 12
 4592 0362 00000000 		.4byte	0x0
 4593 0366 00000000 		.4byte	0x0
 4594              	.LLST26:
 4595 036a AE060000 		.4byte	.LVL69-.Ltext0
 4596 036e B6060000 		.4byte	.LVL72-.Ltext0
 4597 0372 0100     		.2byte	0x1
 4598 0374 50       		.byte	0x50
 4599 0375 B6060000 		.4byte	.LVL72-.Ltext0
 4600 0379 C8060000 		.4byte	.LVL74-.Ltext0
 4601 037d 0100     		.2byte	0x1
 4602 037f 54       		.byte	0x54
 4603 0380 00000000 		.4byte	0x0
 4604 0384 00000000 		.4byte	0x0
 4605              	.LLST27:
 4606 0388 AE060000 		.4byte	.LVL69-.Ltext0
 4607 038c B0060000 		.4byte	.LVL70-.Ltext0
 4608 0390 0100     		.2byte	0x1
 4609 0392 51       		.byte	0x51
ARM GAS  /cygdrive/c/DOCUME~1/mkwapisz/LOCALS~1/Temp/ccwCXJbO.s 			page 108


 4610 0393 B4060000 		.4byte	.LVL71-.Ltext0
 4611 0397 C8060000 		.4byte	.LVL75-.Ltext0
 4612 039b 0100     		.2byte	0x1
 4613 039d 55       		.byte	0x55
 4614 039e 00000000 		.4byte	0x0
 4615 03a2 00000000 		.4byte	0x0
 4616              	.LLST28:
 4617 03a6 D0060000 		.4byte	.LFB4-.Ltext0
 4618 03aa D2060000 		.4byte	.LCFI12-.Ltext0
 4619 03ae 0100     		.2byte	0x1
 4620 03b0 5D       		.byte	0x5d
 4621 03b1 D2060000 		.4byte	.LCFI12-.Ltext0
 4622 03b5 D4060000 		.4byte	.LCFI13-.Ltext0
 4623 03b9 0200     		.2byte	0x2
 4624 03bb 7D       		.byte	0x7d
 4625 03bc 04       		.sleb128 4
 4626 03bd D4060000 		.4byte	.LCFI13-.Ltext0
 4627 03c1 10070000 		.4byte	.LFE4-.Ltext0
 4628 03c5 0200     		.2byte	0x2
 4629 03c7 7D       		.byte	0x7d
 4630 03c8 08       		.sleb128 8
 4631 03c9 00000000 		.4byte	0x0
 4632 03cd 00000000 		.4byte	0x0
 4633              	.LLST29:
 4634 03d1 10070000 		.4byte	.LFB16-.Ltext0
 4635 03d5 12070000 		.4byte	.LCFI14-.Ltext0
 4636 03d9 0100     		.2byte	0x1
 4637 03db 5D       		.byte	0x5d
 4638 03dc 12070000 		.4byte	.LCFI14-.Ltext0
 4639 03e0 14070000 		.4byte	.LCFI15-.Ltext0
 4640 03e4 0200     		.2byte	0x2
 4641 03e6 7D       		.byte	0x7d
 4642 03e7 14       		.sleb128 20
 4643 03e8 14070000 		.4byte	.LCFI15-.Ltext0
 4644 03ec 24090000 		.4byte	.LFE16-.Ltext0
 4645 03f0 0200     		.2byte	0x2
 4646 03f2 7D       		.byte	0x7d
 4647 03f3 38       		.sleb128 56
 4648 03f4 00000000 		.4byte	0x0
 4649 03f8 00000000 		.4byte	0x0
 4650              	.LLST30:
 4651 03fc 12070000 		.4byte	.LVL76-.Ltext0
 4652 0400 16070000 		.4byte	.LVL77-.Ltext0
 4653 0404 0100     		.2byte	0x1
 4654 0406 50       		.byte	0x50
 4655 0407 20070000 		.4byte	.LVL79-.Ltext0
 4656 040b 24090000 		.4byte	.LFE16-.Ltext0
 4657 040f 0200     		.2byte	0x2
 4658 0411 91       		.byte	0x91
 4659 0412 68       		.sleb128 -24
 4660 0413 00000000 		.4byte	0x0
 4661 0417 00000000 		.4byte	0x0
 4662              	.LLST31:
 4663 041b 12070000 		.4byte	.LVL76-.Ltext0
 4664 041f 1C070000 		.4byte	.LVL78-.Ltext0
 4665 0423 0100     		.2byte	0x1
 4666 0425 51       		.byte	0x51
ARM GAS  /cygdrive/c/DOCUME~1/mkwapisz/LOCALS~1/Temp/ccwCXJbO.s 			page 109


 4667 0426 26070000 		.4byte	.LVL80-.Ltext0
 4668 042a 24090000 		.4byte	.LFE16-.Ltext0
 4669 042e 0200     		.2byte	0x2
 4670 0430 91       		.byte	0x91
 4671 0431 64       		.sleb128 -28
 4672 0432 00000000 		.4byte	0x0
 4673 0436 00000000 		.4byte	0x0
 4674              	.LLST32:
 4675 043a D2070000 		.4byte	.LVL85-.Ltext0
 4676 043e EE070000 		.4byte	.LVL89-.Ltext0
 4677 0442 0200     		.2byte	0x2
 4678 0444 74       		.byte	0x74
 4679 0445 00       		.sleb128 0
 4680 0446 1E080000 		.4byte	.LVL90-.Ltext0
 4681 044a 26080000 		.4byte	.LVL91-.Ltext0
 4682 044e 0200     		.2byte	0x2
 4683 0450 74       		.byte	0x74
 4684 0451 00       		.sleb128 0
 4685 0452 36080000 		.4byte	.LVL92-.Ltext0
 4686 0456 24090000 		.4byte	.LFE16-.Ltext0
 4687 045a 0200     		.2byte	0x2
 4688 045c 74       		.byte	0x74
 4689 045d 00       		.sleb128 0
 4690 045e 00000000 		.4byte	0x0
 4691 0462 00000000 		.4byte	0x0
 4692              	.LLST33:
 4693 0466 DC070000 		.4byte	.LVL86-.Ltext0
 4694 046a E2070000 		.4byte	.LVL87-.Ltext0
 4695 046e 0200     		.2byte	0x2
 4696 0470 75       		.byte	0x75
 4697 0471 00       		.sleb128 0
 4698 0472 E2070000 		.4byte	.LVL87-.Ltext0
 4699 0476 EC070000 		.4byte	.LVL88-.Ltext0
 4700 047a 0100     		.2byte	0x1
 4701 047c 53       		.byte	0x53
 4702 047d EC070000 		.4byte	.LVL88-.Ltext0
 4703 0481 EE070000 		.4byte	.LVL89-.Ltext0
 4704 0485 0200     		.2byte	0x2
 4705 0487 75       		.byte	0x75
 4706 0488 00       		.sleb128 0
 4707 0489 1E080000 		.4byte	.LVL90-.Ltext0
 4708 048d 26080000 		.4byte	.LVL91-.Ltext0
 4709 0491 0200     		.2byte	0x2
 4710 0493 75       		.byte	0x75
 4711 0494 00       		.sleb128 0
 4712 0495 36080000 		.4byte	.LVL92-.Ltext0
 4713 0499 24090000 		.4byte	.LFE16-.Ltext0
 4714 049d 0200     		.2byte	0x2
 4715 049f 75       		.byte	0x75
 4716 04a0 00       		.sleb128 0
 4717 04a1 00000000 		.4byte	0x0
 4718 04a5 00000000 		.4byte	0x0
 4719              	.LLST34:
 4720 04a9 72070000 		.4byte	.LVL82-.Ltext0
 4721 04ad 80070000 		.4byte	.LVL83-.Ltext0
 4722 04b1 0200     		.2byte	0x2
 4723 04b3 76       		.byte	0x76
ARM GAS  /cygdrive/c/DOCUME~1/mkwapisz/LOCALS~1/Temp/ccwCXJbO.s 			page 110


 4724 04b4 00       		.sleb128 0
 4725 04b5 80070000 		.4byte	.LVL83-.Ltext0
 4726 04b9 B0070000 		.4byte	.LVL84-.Ltext0
 4727 04bd 0100     		.2byte	0x1
 4728 04bf 54       		.byte	0x54
 4729 04c0 B0070000 		.4byte	.LVL84-.Ltext0
 4730 04c4 EE070000 		.4byte	.LVL89-.Ltext0
 4731 04c8 0200     		.2byte	0x2
 4732 04ca 76       		.byte	0x76
 4733 04cb 00       		.sleb128 0
 4734 04cc 1E080000 		.4byte	.LVL90-.Ltext0
 4735 04d0 26080000 		.4byte	.LVL91-.Ltext0
 4736 04d4 0200     		.2byte	0x2
 4737 04d6 76       		.byte	0x76
 4738 04d7 00       		.sleb128 0
 4739 04d8 36080000 		.4byte	.LVL92-.Ltext0
 4740 04dc 24090000 		.4byte	.LFE16-.Ltext0
 4741 04e0 0200     		.2byte	0x2
 4742 04e2 76       		.byte	0x76
 4743 04e3 00       		.sleb128 0
 4744 04e4 00000000 		.4byte	0x0
 4745 04e8 00000000 		.4byte	0x0
 4746              	.LLST35:
 4747 04ec 24090000 		.4byte	.LFB9-.Ltext0
 4748 04f0 26090000 		.4byte	.LCFI16-.Ltext0
 4749 04f4 0100     		.2byte	0x1
 4750 04f6 5D       		.byte	0x5d
 4751 04f7 26090000 		.4byte	.LCFI16-.Ltext0
 4752 04fb 28090000 		.4byte	.LCFI17-.Ltext0
 4753 04ff 0200     		.2byte	0x2
 4754 0501 7D       		.byte	0x7d
 4755 0502 14       		.sleb128 20
 4756 0503 28090000 		.4byte	.LCFI17-.Ltext0
 4757 0507 30170000 		.4byte	.LFE9-.Ltext0
 4758 050b 0300     		.2byte	0x3
 4759 050d 7D       		.byte	0x7d
 4760 050e E001     		.sleb128 224
 4761 0510 00000000 		.4byte	0x0
 4762 0514 00000000 		.4byte	0x0
 4763              	.LLST36:
 4764 0518 E80E0000 		.4byte	.LVL119-.Ltext0
 4765 051c 7A160000 		.4byte	.LVL156-.Ltext0
 4766 0520 0300     		.2byte	0x3
 4767 0522 91       		.byte	0x91
 4768 0523 EC7E     		.sleb128 -148
 4769 0525 86160000 		.4byte	.LVL160-.Ltext0
 4770 0529 D6160000 		.4byte	.LVL165-.Ltext0
 4771 052d 0300     		.2byte	0x3
 4772 052f 91       		.byte	0x91
 4773 0530 EC7E     		.sleb128 -148
 4774 0532 E0160000 		.4byte	.LVL166-.Ltext0
 4775 0536 30170000 		.4byte	.LFE9-.Ltext0
 4776 053a 0300     		.2byte	0x3
 4777 053c 91       		.byte	0x91
 4778 053d EC7E     		.sleb128 -148
 4779 053f 00000000 		.4byte	0x0
 4780 0543 00000000 		.4byte	0x0
ARM GAS  /cygdrive/c/DOCUME~1/mkwapisz/LOCALS~1/Temp/ccwCXJbO.s 			page 111


 4781              	.LLST37:
 4782 0547 BA090000 		.4byte	.LVL93-.Ltext0
 4783 054b BE090000 		.4byte	.LVL94-.Ltext0
 4784 054f 0300     		.2byte	0x3
 4785 0551 91       		.byte	0x91
 4786 0552 B47F     		.sleb128 -76
 4787 0554 500C0000 		.4byte	.LVL107-.Ltext0
 4788 0558 D80C0000 		.4byte	.LVL108-.Ltext0
 4789 055c 0300     		.2byte	0x3
 4790 055e 91       		.byte	0x91
 4791 055f B47F     		.sleb128 -76
 4792 0561 780E0000 		.4byte	.LVL116-.Ltext0
 4793 0565 7C0E0000 		.4byte	.LVL117-.Ltext0
 4794 0569 0300     		.2byte	0x3
 4795 056b 91       		.byte	0x91
 4796 056c B47F     		.sleb128 -76
 4797 056e E80E0000 		.4byte	.LVL119-.Ltext0
 4798 0572 E80E0000 		.4byte	.LVL119-.Ltext0
 4799 0576 0300     		.2byte	0x3
 4800 0578 91       		.byte	0x91
 4801 0579 B47F     		.sleb128 -76
 4802 057b E80E0000 		.4byte	.LVL119-.Ltext0
 4803 057f 000F0000 		.4byte	.LVL120-.Ltext0
 4804 0583 0300     		.2byte	0x3
 4805 0585 91       		.byte	0x91
 4806 0586 F07E     		.sleb128 -144
 4807 0588 000F0000 		.4byte	.LVL120-.Ltext0
 4808 058c 7A160000 		.4byte	.LVL156-.Ltext0
 4809 0590 0200     		.2byte	0x2
 4810 0592 72       		.byte	0x72
 4811 0593 00       		.sleb128 0
 4812 0594 7E160000 		.4byte	.LVL157-.Ltext0
 4813 0598 80160000 		.4byte	.LVL158-.Ltext0
 4814 059c 0300     		.2byte	0x3
 4815 059e 91       		.byte	0x91
 4816 059f B47F     		.sleb128 -76
 4817 05a1 84160000 		.4byte	.LVL159-.Ltext0
 4818 05a5 86160000 		.4byte	.LVL160-.Ltext0
 4819 05a9 0300     		.2byte	0x3
 4820 05ab 91       		.byte	0x91
 4821 05ac B47F     		.sleb128 -76
 4822 05ae 86160000 		.4byte	.LVL160-.Ltext0
 4823 05b2 86160000 		.4byte	.LVL160-.Ltext0
 4824 05b6 0200     		.2byte	0x2
 4825 05b8 72       		.byte	0x72
 4826 05b9 00       		.sleb128 0
 4827 05ba 86160000 		.4byte	.LVL160-.Ltext0
 4828 05be 8A160000 		.4byte	.LVL161-.Ltext0
 4829 05c2 0300     		.2byte	0x3
 4830 05c4 91       		.byte	0x91
 4831 05c5 F07E     		.sleb128 -144
 4832 05c7 8A160000 		.4byte	.LVL161-.Ltext0
 4833 05cb D6160000 		.4byte	.LVL165-.Ltext0
 4834 05cf 0300     		.2byte	0x3
 4835 05d1 91       		.byte	0x91
 4836 05d2 B47F     		.sleb128 -76
 4837 05d4 E0160000 		.4byte	.LVL166-.Ltext0
ARM GAS  /cygdrive/c/DOCUME~1/mkwapisz/LOCALS~1/Temp/ccwCXJbO.s 			page 112


 4838 05d8 E0160000 		.4byte	.LVL166-.Ltext0
 4839 05dc 0200     		.2byte	0x2
 4840 05de 72       		.byte	0x72
 4841 05df 00       		.sleb128 0
 4842 05e0 E0160000 		.4byte	.LVL166-.Ltext0
 4843 05e4 30170000 		.4byte	.LFE9-.Ltext0
 4844 05e8 0300     		.2byte	0x3
 4845 05ea 91       		.byte	0x91
 4846 05eb F07E     		.sleb128 -144
 4847 05ed 00000000 		.4byte	0x0
 4848 05f1 00000000 		.4byte	0x0
 4849              	.LLST38:
 4850 05f5 660A0000 		.4byte	.LVL95-.Ltext0
 4851 05f9 D80C0000 		.4byte	.LVL108-.Ltext0
 4852 05fd 0200     		.2byte	0x2
 4853 05ff 91       		.byte	0x91
 4854 0600 78       		.sleb128 -8
 4855 0601 E80E0000 		.4byte	.LVL119-.Ltext0
 4856 0605 80160000 		.4byte	.LVL158-.Ltext0
 4857 0609 0200     		.2byte	0x2
 4858 060b 91       		.byte	0x91
 4859 060c 78       		.sleb128 -8
 4860 060d 86160000 		.4byte	.LVL160-.Ltext0
 4861 0611 D6160000 		.4byte	.LVL165-.Ltext0
 4862 0615 0200     		.2byte	0x2
 4863 0617 91       		.byte	0x91
 4864 0618 78       		.sleb128 -8
 4865 0619 E0160000 		.4byte	.LVL166-.Ltext0
 4866 061d 30170000 		.4byte	.LFE9-.Ltext0
 4867 0621 0200     		.2byte	0x2
 4868 0623 91       		.byte	0x91
 4869 0624 78       		.sleb128 -8
 4870 0625 00000000 		.4byte	0x0
 4871 0629 00000000 		.4byte	0x0
 4872              	.LLST39:
 4873 062d 6E0A0000 		.4byte	.LVL97-.Ltext0
 4874 0631 700A0000 		.4byte	.LVL98-.Ltext0
 4875 0635 0100     		.2byte	0x1
 4876 0637 54       		.byte	0x54
 4877 0638 B00A0000 		.4byte	.LVL99-.Ltext0
 4878 063c B20A0000 		.4byte	.LVL100-.Ltext0
 4879 0640 0100     		.2byte	0x1
 4880 0642 54       		.byte	0x54
 4881 0643 C40A0000 		.4byte	.LVL101-.Ltext0
 4882 0647 CC0A0000 		.4byte	.LVL102-.Ltext0
 4883 064b 0100     		.2byte	0x1
 4884 064d 54       		.byte	0x54
 4885 064e DC0A0000 		.4byte	.LVL103-.Ltext0
 4886 0652 5E0B0000 		.4byte	.LVL104-.Ltext0
 4887 0656 0100     		.2byte	0x1
 4888 0658 54       		.byte	0x54
 4889 0659 180C0000 		.4byte	.LVL105-.Ltext0
 4890 065d D80C0000 		.4byte	.LVL108-.Ltext0
 4891 0661 0100     		.2byte	0x1
 4892 0663 54       		.byte	0x54
 4893 0664 E80E0000 		.4byte	.LVL119-.Ltext0
 4894 0668 8A0F0000 		.4byte	.LVL126-.Ltext0
ARM GAS  /cygdrive/c/DOCUME~1/mkwapisz/LOCALS~1/Temp/ccwCXJbO.s 			page 113


 4895 066c 0100     		.2byte	0x1
 4896 066e 54       		.byte	0x54
 4897 066f AA0F0000 		.4byte	.LVL128-.Ltext0
 4898 0673 20100000 		.4byte	.LVL133-.Ltext0
 4899 0677 0100     		.2byte	0x1
 4900 0679 54       		.byte	0x54
 4901 067a AA110000 		.4byte	.LVL135-.Ltext0
 4902 067e CA110000 		.4byte	.LVL137-.Ltext0
 4903 0682 0100     		.2byte	0x1
 4904 0684 54       		.byte	0x54
 4905 0685 EC150000 		.4byte	.LVL151-.Ltext0
 4906 0689 56160000 		.4byte	.LVL152-.Ltext0
 4907 068d 0100     		.2byte	0x1
 4908 068f 54       		.byte	0x54
 4909 0690 72160000 		.4byte	.LVL154-.Ltext0
 4910 0694 7A160000 		.4byte	.LVL156-.Ltext0
 4911 0698 0100     		.2byte	0x1
 4912 069a 54       		.byte	0x54
 4913 069b 86160000 		.4byte	.LVL160-.Ltext0
 4914 069f D0160000 		.4byte	.LVL162-.Ltext0
 4915 06a3 0100     		.2byte	0x1
 4916 06a5 54       		.byte	0x54
 4917 06a6 00000000 		.4byte	0x0
 4918 06aa 00000000 		.4byte	0x0
 4919              	.LLST40:
 4920 06ae 6E0A0000 		.4byte	.LVL97-.Ltext0
 4921 06b2 D80C0000 		.4byte	.LVL108-.Ltext0
 4922 06b6 0200     		.2byte	0x2
 4923 06b8 74       		.byte	0x74
 4924 06b9 00       		.sleb128 0
 4925 06ba E80E0000 		.4byte	.LVL119-.Ltext0
 4926 06be 80160000 		.4byte	.LVL158-.Ltext0
 4927 06c2 0200     		.2byte	0x2
 4928 06c4 74       		.byte	0x74
 4929 06c5 00       		.sleb128 0
 4930 06c6 86160000 		.4byte	.LVL160-.Ltext0
 4931 06ca D6160000 		.4byte	.LVL165-.Ltext0
 4932 06ce 0200     		.2byte	0x2
 4933 06d0 74       		.byte	0x74
 4934 06d1 00       		.sleb128 0
 4935 06d2 E0160000 		.4byte	.LVL166-.Ltext0
 4936 06d6 30170000 		.4byte	.LFE9-.Ltext0
 4937 06da 0200     		.2byte	0x2
 4938 06dc 74       		.byte	0x74
 4939 06dd 00       		.sleb128 0
 4940 06de 00000000 		.4byte	0x0
 4941 06e2 00000000 		.4byte	0x0
 4942              	.LLST41:
 4943 06e6 6A0A0000 		.4byte	.LVL96-.Ltext0
 4944 06ea 4E0C0000 		.4byte	.LVL106-.Ltext0
 4945 06ee 0100     		.2byte	0x1
 4946 06f0 56       		.byte	0x56
 4947 06f1 E80E0000 		.4byte	.LVL119-.Ltext0
 4948 06f5 2A0F0000 		.4byte	.LVL122-.Ltext0
 4949 06f9 0100     		.2byte	0x1
 4950 06fb 56       		.byte	0x56
 4951 06fc 2E0F0000 		.4byte	.LVL123-.Ltext0
ARM GAS  /cygdrive/c/DOCUME~1/mkwapisz/LOCALS~1/Temp/ccwCXJbO.s 			page 114


 4952 0700 8E0F0000 		.4byte	.LVL127-.Ltext0
 4953 0704 0100     		.2byte	0x1
 4954 0706 56       		.byte	0x56
 4955 0707 AA0F0000 		.4byte	.LVL128-.Ltext0
 4956 070b 2A100000 		.4byte	.LVL134-.Ltext0
 4957 070f 0100     		.2byte	0x1
 4958 0711 56       		.byte	0x56
 4959 0712 AA110000 		.4byte	.LVL135-.Ltext0
 4960 0716 36120000 		.4byte	.LVL138-.Ltext0
 4961 071a 0100     		.2byte	0x1
 4962 071c 56       		.byte	0x56
 4963 071d 5C120000 		.4byte	.LVL139-.Ltext0
 4964 0721 6E120000 		.4byte	.LVL140-.Ltext0
 4965 0725 0100     		.2byte	0x1
 4966 0727 56       		.byte	0x56
 4967 0728 A6150000 		.4byte	.LVL149-.Ltext0
 4968 072c C2150000 		.4byte	.LVL150-.Ltext0
 4969 0730 0100     		.2byte	0x1
 4970 0732 56       		.byte	0x56
 4971 0733 EC150000 		.4byte	.LVL151-.Ltext0
 4972 0737 56160000 		.4byte	.LVL152-.Ltext0
 4973 073b 0100     		.2byte	0x1
 4974 073d 56       		.byte	0x56
 4975 073e 72160000 		.4byte	.LVL154-.Ltext0
 4976 0742 80160000 		.4byte	.LVL158-.Ltext0
 4977 0746 0100     		.2byte	0x1
 4978 0748 56       		.byte	0x56
 4979 0749 86160000 		.4byte	.LVL160-.Ltext0
 4980 074d D0160000 		.4byte	.LVL163-.Ltext0
 4981 0751 0100     		.2byte	0x1
 4982 0753 56       		.byte	0x56
 4983 0754 00000000 		.4byte	0x0
 4984 0758 00000000 		.4byte	0x0
 4985              	.LLST42:
 4986 075c 4C0D0000 		.4byte	.LVL110-.Ltext0
 4987 0760 320E0000 		.4byte	.LVL113-.Ltext0
 4988 0764 0100     		.2byte	0x1
 4989 0766 57       		.byte	0x57
 4990 0767 4E0E0000 		.4byte	.LVL114-.Ltext0
 4991 076b 6E0E0000 		.4byte	.LVL115-.Ltext0
 4992 076f 0100     		.2byte	0x1
 4993 0771 57       		.byte	0x57
 4994 0772 880E0000 		.4byte	.LVL118-.Ltext0
 4995 0776 3C0F0000 		.4byte	.LVL124-.Ltext0
 4996 077a 0100     		.2byte	0x1
 4997 077c 57       		.byte	0x57
 4998 077d 3E0F0000 		.4byte	.LVL125-.Ltext0
 4999 0781 8E0F0000 		.4byte	.LVL127-.Ltext0
 5000 0785 0100     		.2byte	0x1
 5001 0787 57       		.byte	0x57
 5002 0788 E00F0000 		.4byte	.LVL131-.Ltext0
 5003 078c 08100000 		.4byte	.LVL132-.Ltext0
 5004 0790 0100     		.2byte	0x1
 5005 0792 57       		.byte	0x57
 5006 0793 AA110000 		.4byte	.LVL135-.Ltext0
 5007 0797 BC110000 		.4byte	.LVL136-.Ltext0
 5008 079b 0100     		.2byte	0x1
ARM GAS  /cygdrive/c/DOCUME~1/mkwapisz/LOCALS~1/Temp/ccwCXJbO.s 			page 115


 5009 079d 57       		.byte	0x57
 5010 079e EC150000 		.4byte	.LVL151-.Ltext0
 5011 07a2 5A160000 		.4byte	.LVL153-.Ltext0
 5012 07a6 0100     		.2byte	0x1
 5013 07a8 57       		.byte	0x57
 5014 07a9 72160000 		.4byte	.LVL154-.Ltext0
 5015 07ad 74160000 		.4byte	.LVL155-.Ltext0
 5016 07b1 0100     		.2byte	0x1
 5017 07b3 57       		.byte	0x57
 5018 07b4 80160000 		.4byte	.LVL158-.Ltext0
 5019 07b8 86160000 		.4byte	.LVL160-.Ltext0
 5020 07bc 0100     		.2byte	0x1
 5021 07be 57       		.byte	0x57
 5022 07bf 8A160000 		.4byte	.LVL161-.Ltext0
 5023 07c3 D0160000 		.4byte	.LVL164-.Ltext0
 5024 07c7 0100     		.2byte	0x1
 5025 07c9 57       		.byte	0x57
 5026 07ca D6160000 		.4byte	.LVL165-.Ltext0
 5027 07ce E0160000 		.4byte	.LVL166-.Ltext0
 5028 07d2 0100     		.2byte	0x1
 5029 07d4 57       		.byte	0x57
 5030 07d5 00000000 		.4byte	0x0
 5031 07d9 00000000 		.4byte	0x0
 5032              	.LLST43:
 5033 07dd B60D0000 		.4byte	.LVL111-.Ltext0
 5034 07e1 C40D0000 		.4byte	.LVL112-.Ltext0
 5035 07e5 0100     		.2byte	0x1
 5036 07e7 53       		.byte	0x53
 5037 07e8 00000000 		.4byte	0x0
 5038 07ec 00000000 		.4byte	0x0
 5039              	.LLST44:
 5040 07f0 E80E0000 		.4byte	.LVL119-.Ltext0
 5041 07f4 120F0000 		.4byte	.LVL121-.Ltext0
 5042 07f8 0200     		.2byte	0x2
 5043 07fa 73       		.byte	0x73
 5044 07fb 00       		.sleb128 0
 5045 07fc 120F0000 		.4byte	.LVL121-.Ltext0
 5046 0800 C60F0000 		.4byte	.LVL129-.Ltext0
 5047 0804 0200     		.2byte	0x2
 5048 0806 71       		.byte	0x71
 5049 0807 00       		.sleb128 0
 5050 0808 C60F0000 		.4byte	.LVL129-.Ltext0
 5051 080c D40F0000 		.4byte	.LVL130-.Ltext0
 5052 0810 0100     		.2byte	0x1
 5053 0812 52       		.byte	0x52
 5054 0813 D40F0000 		.4byte	.LVL130-.Ltext0
 5055 0817 7A160000 		.4byte	.LVL156-.Ltext0
 5056 081b 0200     		.2byte	0x2
 5057 081d 73       		.byte	0x73
 5058 081e 00       		.sleb128 0
 5059 081f 86160000 		.4byte	.LVL160-.Ltext0
 5060 0823 D6160000 		.4byte	.LVL165-.Ltext0
 5061 0827 0200     		.2byte	0x2
 5062 0829 73       		.byte	0x73
 5063 082a 00       		.sleb128 0
 5064 082b E0160000 		.4byte	.LVL166-.Ltext0
 5065 082f 30170000 		.4byte	.LFE9-.Ltext0
ARM GAS  /cygdrive/c/DOCUME~1/mkwapisz/LOCALS~1/Temp/ccwCXJbO.s 			page 116


 5066 0833 0200     		.2byte	0x2
 5067 0835 73       		.byte	0x73
 5068 0836 00       		.sleb128 0
 5069 0837 00000000 		.4byte	0x0
 5070 083b 00000000 		.4byte	0x0
 5071              	.LLST45:
 5072 083f E80E0000 		.4byte	.LVL119-.Ltext0
 5073 0843 7A160000 		.4byte	.LVL156-.Ltext0
 5074 0847 0300     		.2byte	0x3
 5075 0849 91       		.byte	0x91
 5076 084a 887F     		.sleb128 -120
 5077 084c 86160000 		.4byte	.LVL160-.Ltext0
 5078 0850 D6160000 		.4byte	.LVL165-.Ltext0
 5079 0854 0300     		.2byte	0x3
 5080 0856 91       		.byte	0x91
 5081 0857 887F     		.sleb128 -120
 5082 0859 E0160000 		.4byte	.LVL166-.Ltext0
 5083 085d 30170000 		.4byte	.LFE9-.Ltext0
 5084 0861 0300     		.2byte	0x3
 5085 0863 91       		.byte	0x91
 5086 0864 887F     		.sleb128 -120
 5087 0866 00000000 		.4byte	0x0
 5088 086a 00000000 		.4byte	0x0
 5089              	.LLST46:
 5090 086e E80E0000 		.4byte	.LVL119-.Ltext0
 5091 0872 7A160000 		.4byte	.LVL156-.Ltext0
 5092 0876 0300     		.2byte	0x3
 5093 0878 91       		.byte	0x91
 5094 0879 847F     		.sleb128 -124
 5095 087b 86160000 		.4byte	.LVL160-.Ltext0
 5096 087f D6160000 		.4byte	.LVL165-.Ltext0
 5097 0883 0300     		.2byte	0x3
 5098 0885 91       		.byte	0x91
 5099 0886 847F     		.sleb128 -124
 5100 0888 E0160000 		.4byte	.LVL166-.Ltext0
 5101 088c 30170000 		.4byte	.LFE9-.Ltext0
 5102 0890 0300     		.2byte	0x3
 5103 0892 91       		.byte	0x91
 5104 0893 847F     		.sleb128 -124
 5105 0895 00000000 		.4byte	0x0
 5106 0899 00000000 		.4byte	0x0
 5107              	.LLST47:
 5108 089d E80E0000 		.4byte	.LVL119-.Ltext0
 5109 08a1 7A160000 		.4byte	.LVL156-.Ltext0
 5110 08a5 0300     		.2byte	0x3
 5111 08a7 91       		.byte	0x91
 5112 08a8 807F     		.sleb128 -128
 5113 08aa 86160000 		.4byte	.LVL160-.Ltext0
 5114 08ae D6160000 		.4byte	.LVL165-.Ltext0
 5115 08b2 0300     		.2byte	0x3
 5116 08b4 91       		.byte	0x91
 5117 08b5 807F     		.sleb128 -128
 5118 08b7 E0160000 		.4byte	.LVL166-.Ltext0
 5119 08bb 30170000 		.4byte	.LFE9-.Ltext0
 5120 08bf 0300     		.2byte	0x3
 5121 08c1 91       		.byte	0x91
 5122 08c2 807F     		.sleb128 -128
ARM GAS  /cygdrive/c/DOCUME~1/mkwapisz/LOCALS~1/Temp/ccwCXJbO.s 			page 117


 5123 08c4 00000000 		.4byte	0x0
 5124 08c8 00000000 		.4byte	0x0
 5125              	.LLST48:
 5126 08cc E80E0000 		.4byte	.LVL119-.Ltext0
 5127 08d0 7A160000 		.4byte	.LVL156-.Ltext0
 5128 08d4 0300     		.2byte	0x3
 5129 08d6 91       		.byte	0x91
 5130 08d7 FC7E     		.sleb128 -132
 5131 08d9 86160000 		.4byte	.LVL160-.Ltext0
 5132 08dd D6160000 		.4byte	.LVL165-.Ltext0
 5133 08e1 0300     		.2byte	0x3
 5134 08e3 91       		.byte	0x91
 5135 08e4 FC7E     		.sleb128 -132
 5136 08e6 E0160000 		.4byte	.LVL166-.Ltext0
 5137 08ea 30170000 		.4byte	.LFE9-.Ltext0
 5138 08ee 0300     		.2byte	0x3
 5139 08f0 91       		.byte	0x91
 5140 08f1 FC7E     		.sleb128 -132
 5141 08f3 00000000 		.4byte	0x0
 5142 08f7 00000000 		.4byte	0x0
 5143              	.LLST49:
 5144 08fb FE130000 		.4byte	.LVL143-.Ltext0
 5145 08ff 02140000 		.4byte	.LVL144-.Ltext0
 5146 0903 0600     		.2byte	0x6
 5147 0905 50       		.byte	0x50
 5148 0906 93       		.byte	0x93
 5149 0907 04       		.uleb128 0x4
 5150 0908 51       		.byte	0x51
 5151 0909 93       		.byte	0x93
 5152 090a 04       		.uleb128 0x4
 5153 090b 1C140000 		.4byte	.LVL145-.Ltext0
 5154 090f 20140000 		.4byte	.LVL146-.Ltext0
 5155 0913 0600     		.2byte	0x6
 5156 0915 50       		.byte	0x50
 5157 0916 93       		.byte	0x93
 5158 0917 04       		.uleb128 0x4
 5159 0918 51       		.byte	0x51
 5160 0919 93       		.byte	0x93
 5161 091a 04       		.uleb128 0x4
 5162 091b 00000000 		.4byte	0x0
 5163 091f 00000000 		.4byte	0x0
 5164              	.LLST50:
 5165 0923 E8130000 		.4byte	.LVL142-.Ltext0
 5166 0927 2E140000 		.4byte	.LVL147-.Ltext0
 5167 092b 0600     		.2byte	0x6
 5168 092d 56       		.byte	0x56
 5169 092e 93       		.byte	0x93
 5170 092f 04       		.uleb128 0x4
 5171 0930 57       		.byte	0x57
 5172 0931 93       		.byte	0x93
 5173 0932 04       		.uleb128 0x4
 5174 0933 00000000 		.4byte	0x0
 5175 0937 00000000 		.4byte	0x0
 5176              		.section	.debug_info
 5177 0000 8A0A0000 		.4byte	0xa8a
 5178 0004 0200     		.2byte	0x2
 5179 0006 00000000 		.4byte	.Ldebug_abbrev0
ARM GAS  /cygdrive/c/DOCUME~1/mkwapisz/LOCALS~1/Temp/ccwCXJbO.s 			page 118


 5180 000a 04       		.byte	0x4
 5181 000b 01       		.uleb128 0x1
 5182 000c 00000000 		.4byte	.Ldebug_line0
 5183 0010 30170000 		.4byte	.Letext0
 5184 0014 00000000 		.4byte	.Ltext0
 5185 0018 0F030000 		.4byte	.LASF105
 5186 001c 01       		.byte	0x1
 5187 001d 86030000 		.4byte	.LASF106
 5188 0021 C4030000 		.4byte	.LASF107
 5189 0025 02       		.uleb128 0x2
 5190 0026 74553800 		.ascii	"tU8\000"
 5191 002a 02       		.byte	0x2
 5192 002b 47       		.byte	0x47
 5193 002c 30000000 		.4byte	0x30
 5194 0030 03       		.uleb128 0x3
 5195 0031 01030000 		.4byte	.LASF0
 5196 0035 01       		.byte	0x1
 5197 0036 08       		.byte	0x8
 5198 0037 03       		.uleb128 0x3
 5199 0038 1E020000 		.4byte	.LASF1
 5200 003c 02       		.byte	0x2
 5201 003d 07       		.byte	0x7
 5202 003e 04       		.uleb128 0x4
 5203 003f 43020000 		.4byte	.LASF2
 5204 0043 02       		.byte	0x2
 5205 0044 49       		.byte	0x49
 5206 0045 49000000 		.4byte	0x49
 5207 0049 03       		.uleb128 0x3
 5208 004a BA010000 		.4byte	.LASF3
 5209 004e 04       		.byte	0x4
 5210 004f 07       		.byte	0x7
 5211 0050 02       		.uleb128 0x2
 5212 0051 74533800 		.ascii	"tS8\000"
 5213 0055 02       		.byte	0x2
 5214 0056 4A       		.byte	0x4a
 5215 0057 5B000000 		.4byte	0x5b
 5216 005b 03       		.uleb128 0x3
 5217 005c 2D000000 		.4byte	.LASF4
 5218 0060 01       		.byte	0x1
 5219 0061 06       		.byte	0x6
 5220 0062 03       		.uleb128 0x3
 5221 0063 20030000 		.4byte	.LASF5
 5222 0067 02       		.byte	0x2
 5223 0068 05       		.byte	0x5
 5224 0069 05       		.uleb128 0x5
 5225 006a 696E7400 		.ascii	"int\000"
 5226 006e 04       		.byte	0x4
 5227 006f 05       		.byte	0x5
 5228 0070 04       		.uleb128 0x4
 5229 0071 BC000000 		.4byte	.LASF6
 5230 0075 02       		.byte	0x2
 5231 0076 4D       		.byte	0x4d
 5232 0077 30000000 		.4byte	0x30
 5233 007b 06       		.uleb128 0x6
 5234 007c 04       		.byte	0x4
 5235 007d 25000000 		.4byte	0x25
 5236 0081 03       		.uleb128 0x3
ARM GAS  /cygdrive/c/DOCUME~1/mkwapisz/LOCALS~1/Temp/ccwCXJbO.s 			page 119


 5237 0082 F7010000 		.4byte	.LASF7
 5238 0086 04       		.byte	0x4
 5239 0087 07       		.byte	0x7
 5240 0088 03       		.uleb128 0x3
 5241 0089 E3000000 		.4byte	.LASF8
 5242 008d 04       		.byte	0x4
 5243 008e 05       		.byte	0x5
 5244 008f 03       		.uleb128 0x3
 5245 0090 AE000000 		.4byte	.LASF9
 5246 0094 08       		.byte	0x8
 5247 0095 05       		.byte	0x5
 5248 0096 03       		.uleb128 0x3
 5249 0097 F7010000 		.4byte	.LASF7
 5250 009b 04       		.byte	0x4
 5251 009c 07       		.byte	0x7
 5252 009d 03       		.uleb128 0x3
 5253 009e 66030000 		.4byte	.LASF10
 5254 00a2 01       		.byte	0x1
 5255 00a3 08       		.byte	0x8
 5256 00a4 03       		.uleb128 0x3
 5257 00a5 67000000 		.4byte	.LASF11
 5258 00a9 08       		.byte	0x8
 5259 00aa 07       		.byte	0x7
 5260 00ab 03       		.uleb128 0x3
 5261 00ac 1D010000 		.4byte	.LASF12
 5262 00b0 08       		.byte	0x8
 5263 00b1 04       		.byte	0x4
 5264 00b2 03       		.uleb128 0x3
 5265 00b3 BB020000 		.4byte	.LASF13
 5266 00b7 04       		.byte	0x4
 5267 00b8 04       		.byte	0x4
 5268 00b9 03       		.uleb128 0x3
 5269 00ba 10000000 		.4byte	.LASF14
 5270 00be 08       		.byte	0x8
 5271 00bf 04       		.byte	0x4
 5272 00c0 07       		.uleb128 0x7
 5273 00c1 8D010000 		.4byte	0x18d
 5274 00c5 30       		.byte	0x30
 5275 00c6 03       		.byte	0x3
 5276 00c7 1A       		.byte	0x1a
 5277 00c8 08       		.uleb128 0x8
 5278 00c9 0E040000 		.4byte	.LASF15
 5279 00cd 03       		.byte	0x3
 5280 00ce 1B       		.byte	0x1b
 5281 00cf 25000000 		.4byte	0x25
 5282 00d3 02       		.byte	0x2
 5283 00d4 23       		.byte	0x23
 5284 00d5 00       		.uleb128 0x0
 5285 00d6 08       		.uleb128 0x8
 5286 00d7 97030000 		.4byte	.LASF16
 5287 00db 03       		.byte	0x3
 5288 00dc 1C       		.byte	0x1c
 5289 00dd 25000000 		.4byte	0x25
 5290 00e1 02       		.byte	0x2
 5291 00e2 23       		.byte	0x23
 5292 00e3 01       		.uleb128 0x1
 5293 00e4 08       		.uleb128 0x8
ARM GAS  /cygdrive/c/DOCUME~1/mkwapisz/LOCALS~1/Temp/ccwCXJbO.s 			page 120


 5294 00e5 3A030000 		.4byte	.LASF17
 5295 00e9 03       		.byte	0x3
 5296 00ea 1D       		.byte	0x1d
 5297 00eb 25000000 		.4byte	0x25
 5298 00ef 02       		.byte	0x2
 5299 00f0 23       		.byte	0x23
 5300 00f1 02       		.uleb128 0x2
 5301 00f2 08       		.uleb128 0x8
 5302 00f3 11010000 		.4byte	.LASF18
 5303 00f7 03       		.byte	0x3
 5304 00f8 1E       		.byte	0x1e
 5305 00f9 25000000 		.4byte	0x25
 5306 00fd 02       		.byte	0x2
 5307 00fe 23       		.byte	0x23
 5308 00ff 03       		.uleb128 0x3
 5309 0100 08       		.uleb128 0x8
 5310 0101 59010000 		.4byte	.LASF19
 5311 0105 03       		.byte	0x3
 5312 0106 1F       		.byte	0x1f
 5313 0107 25000000 		.4byte	0x25
 5314 010b 02       		.byte	0x2
 5315 010c 23       		.byte	0x23
 5316 010d 04       		.uleb128 0x4
 5317 010e 08       		.uleb128 0x8
 5318 010f 88010000 		.4byte	.LASF20
 5319 0113 03       		.byte	0x3
 5320 0114 20       		.byte	0x20
 5321 0115 25000000 		.4byte	0x25
 5322 0119 02       		.byte	0x2
 5323 011a 23       		.byte	0x23
 5324 011b 05       		.uleb128 0x5
 5325 011c 08       		.uleb128 0x8
 5326 011d 44040000 		.4byte	.LASF21
 5327 0121 03       		.byte	0x3
 5328 0122 21       		.byte	0x21
 5329 0123 7B000000 		.4byte	0x7b
 5330 0127 02       		.byte	0x2
 5331 0128 23       		.byte	0x23
 5332 0129 08       		.uleb128 0x8
 5333 012a 08       		.uleb128 0x8
 5334 012b E2010000 		.4byte	.LASF22
 5335 012f 03       		.byte	0x3
 5336 0130 22       		.byte	0x22
 5337 0131 25000000 		.4byte	0x25
 5338 0135 02       		.byte	0x2
 5339 0136 23       		.byte	0x23
 5340 0137 0C       		.uleb128 0xc
 5341 0138 08       		.uleb128 0x8
 5342 0139 61020000 		.4byte	.LASF23
 5343 013d 03       		.byte	0x3
 5344 013e 23       		.byte	0x23
 5345 013f 8D010000 		.4byte	0x18d
 5346 0143 02       		.byte	0x2
 5347 0144 23       		.byte	0x23
 5348 0145 10       		.uleb128 0x10
 5349 0146 08       		.uleb128 0x8
 5350 0147 69020000 		.4byte	.LASF24
ARM GAS  /cygdrive/c/DOCUME~1/mkwapisz/LOCALS~1/Temp/ccwCXJbO.s 			page 121


 5351 014b 03       		.byte	0x3
 5352 014c 24       		.byte	0x24
 5353 014d 25000000 		.4byte	0x25
 5354 0151 02       		.byte	0x2
 5355 0152 23       		.byte	0x23
 5356 0153 28       		.uleb128 0x28
 5357 0154 08       		.uleb128 0x8
 5358 0155 A2000000 		.4byte	.LASF25
 5359 0159 03       		.byte	0x3
 5360 015a 25       		.byte	0x25
 5361 015b 25000000 		.4byte	0x25
 5362 015f 02       		.byte	0x2
 5363 0160 23       		.byte	0x23
 5364 0161 29       		.uleb128 0x29
 5365 0162 08       		.uleb128 0x8
 5366 0163 96020000 		.4byte	.LASF26
 5367 0167 03       		.byte	0x3
 5368 0168 26       		.byte	0x26
 5369 0169 25000000 		.4byte	0x25
 5370 016d 02       		.byte	0x2
 5371 016e 23       		.byte	0x23
 5372 016f 2A       		.uleb128 0x2a
 5373 0170 08       		.uleb128 0x8
 5374 0171 6F010000 		.4byte	.LASF27
 5375 0175 03       		.byte	0x3
 5376 0176 27       		.byte	0x27
 5377 0177 25000000 		.4byte	0x25
 5378 017b 02       		.byte	0x2
 5379 017c 23       		.byte	0x23
 5380 017d 2B       		.uleb128 0x2b
 5381 017e 08       		.uleb128 0x8
 5382 017f 84000000 		.4byte	.LASF28
 5383 0183 03       		.byte	0x3
 5384 0184 28       		.byte	0x28
 5385 0185 25000000 		.4byte	0x25
 5386 0189 02       		.byte	0x2
 5387 018a 23       		.byte	0x23
 5388 018b 2C       		.uleb128 0x2c
 5389 018c 00       		.byte	0x0
 5390 018d 09       		.uleb128 0x9
 5391 018e 9D010000 		.4byte	0x19d
 5392 0192 7B000000 		.4byte	0x7b
 5393 0196 0A       		.uleb128 0xa
 5394 0197 81000000 		.4byte	0x81
 5395 019b 05       		.byte	0x5
 5396 019c 00       		.byte	0x0
 5397 019d 04       		.uleb128 0x4
 5398 019e E7020000 		.4byte	.LASF29
 5399 01a2 03       		.byte	0x3
 5400 01a3 29       		.byte	0x29
 5401 01a4 C0000000 		.4byte	0xc0
 5402 01a8 0B       		.uleb128 0xb
 5403 01a9 25020000 		.4byte	0x225
 5404 01ad 7C010000 		.4byte	.LASF36
 5405 01b1 10       		.byte	0x10
 5406 01b2 01       		.byte	0x1
 5407 01b3 46       		.byte	0x46
ARM GAS  /cygdrive/c/DOCUME~1/mkwapisz/LOCALS~1/Temp/ccwCXJbO.s 			page 122


 5408 01b4 08       		.uleb128 0x8
 5409 01b5 0E040000 		.4byte	.LASF15
 5410 01b9 01       		.byte	0x1
 5411 01ba 47       		.byte	0x47
 5412 01bb 25000000 		.4byte	0x25
 5413 01bf 02       		.byte	0x2
 5414 01c0 23       		.byte	0x23
 5415 01c1 00       		.uleb128 0x0
 5416 01c2 08       		.uleb128 0x8
 5417 01c3 97030000 		.4byte	.LASF16
 5418 01c7 01       		.byte	0x1
 5419 01c8 48       		.byte	0x48
 5420 01c9 25000000 		.4byte	0x25
 5421 01cd 02       		.byte	0x2
 5422 01ce 23       		.byte	0x23
 5423 01cf 01       		.uleb128 0x1
 5424 01d0 08       		.uleb128 0x8
 5425 01d1 19020000 		.4byte	.LASF30
 5426 01d5 01       		.byte	0x1
 5427 01d6 49       		.byte	0x49
 5428 01d7 25000000 		.4byte	0x25
 5429 01db 02       		.byte	0x2
 5430 01dc 23       		.byte	0x23
 5431 01dd 02       		.uleb128 0x2
 5432 01de 08       		.uleb128 0x8
 5433 01df 3E040000 		.4byte	.LASF31
 5434 01e3 01       		.byte	0x1
 5435 01e4 4A       		.byte	0x4a
 5436 01e5 25000000 		.4byte	0x25
 5437 01e9 02       		.byte	0x2
 5438 01ea 23       		.byte	0x23
 5439 01eb 03       		.uleb128 0x3
 5440 01ec 08       		.uleb128 0x8
 5441 01ed D1000000 		.4byte	.LASF32
 5442 01f1 01       		.byte	0x1
 5443 01f2 4B       		.byte	0x4b
 5444 01f3 25000000 		.4byte	0x25
 5445 01f7 02       		.byte	0x2
 5446 01f8 23       		.byte	0x23
 5447 01f9 04       		.uleb128 0x4
 5448 01fa 08       		.uleb128 0x8
 5449 01fb 3E000000 		.4byte	.LASF33
 5450 01ff 01       		.byte	0x1
 5451 0200 4C       		.byte	0x4c
 5452 0201 25000000 		.4byte	0x25
 5453 0205 02       		.byte	0x2
 5454 0206 23       		.byte	0x23
 5455 0207 05       		.uleb128 0x5
 5456 0208 08       		.uleb128 0x8
 5457 0209 BB030000 		.4byte	.LASF34
 5458 020d 01       		.byte	0x1
 5459 020e 4D       		.byte	0x4d
 5460 020f 3E000000 		.4byte	0x3e
 5461 0213 02       		.byte	0x2
 5462 0214 23       		.byte	0x23
 5463 0215 08       		.uleb128 0x8
 5464 0216 0C       		.uleb128 0xc
ARM GAS  /cygdrive/c/DOCUME~1/mkwapisz/LOCALS~1/Temp/ccwCXJbO.s 			page 123


 5465 0217 6B657900 		.ascii	"key\000"
 5466 021b 01       		.byte	0x1
 5467 021c 4E       		.byte	0x4e
 5468 021d 25000000 		.4byte	0x25
 5469 0221 02       		.byte	0x2
 5470 0222 23       		.byte	0x23
 5471 0223 0C       		.uleb128 0xc
 5472 0224 00       		.byte	0x0
 5473 0225 04       		.uleb128 0x4
 5474 0226 AA030000 		.4byte	.LASF35
 5475 022a 01       		.byte	0x1
 5476 022b 4F       		.byte	0x4f
 5477 022c A8010000 		.4byte	0x1a8
 5478 0230 0B       		.uleb128 0xb
 5479 0231 AD020000 		.4byte	0x2ad
 5480 0235 48000000 		.4byte	.LASF37
 5481 0239 34       		.byte	0x34
 5482 023a 01       		.byte	0x1
 5483 023b 52       		.byte	0x52
 5484 023c 08       		.uleb128 0x8
 5485 023d 0E040000 		.4byte	.LASF15
 5486 0241 01       		.byte	0x1
 5487 0242 53       		.byte	0x53
 5488 0243 AB000000 		.4byte	0xab
 5489 0247 02       		.byte	0x2
 5490 0248 23       		.byte	0x23
 5491 0249 00       		.uleb128 0x0
 5492 024a 08       		.uleb128 0x8
 5493 024b 97030000 		.4byte	.LASF16
 5494 024f 01       		.byte	0x1
 5495 0250 54       		.byte	0x54
 5496 0251 AB000000 		.4byte	0xab
 5497 0255 02       		.byte	0x2
 5498 0256 23       		.byte	0x23
 5499 0257 08       		.uleb128 0x8
 5500 0258 08       		.uleb128 0x8
 5501 0259 19020000 		.4byte	.LASF30
 5502 025d 01       		.byte	0x1
 5503 025e 55       		.byte	0x55
 5504 025f 25000000 		.4byte	0x25
 5505 0263 02       		.byte	0x2
 5506 0264 23       		.byte	0x23
 5507 0265 10       		.uleb128 0x10
 5508 0266 08       		.uleb128 0x8
 5509 0267 D1000000 		.4byte	.LASF32
 5510 026b 01       		.byte	0x1
 5511 026c 56       		.byte	0x56
 5512 026d 25000000 		.4byte	0x25
 5513 0271 02       		.byte	0x2
 5514 0272 23       		.byte	0x23
 5515 0273 11       		.uleb128 0x11
 5516 0274 08       		.uleb128 0x8
 5517 0275 26040000 		.4byte	.LASF38
 5518 0279 01       		.byte	0x1
 5519 027a 57       		.byte	0x57
 5520 027b AB000000 		.4byte	0xab
 5521 027f 02       		.byte	0x2
ARM GAS  /cygdrive/c/DOCUME~1/mkwapisz/LOCALS~1/Temp/ccwCXJbO.s 			page 124


 5522 0280 23       		.byte	0x23
 5523 0281 14       		.uleb128 0x14
 5524 0282 08       		.uleb128 0x8
 5525 0283 31020000 		.4byte	.LASF39
 5526 0287 01       		.byte	0x1
 5527 0288 58       		.byte	0x58
 5528 0289 AB000000 		.4byte	0xab
 5529 028d 02       		.byte	0x2
 5530 028e 23       		.byte	0x23
 5531 028f 1C       		.uleb128 0x1c
 5532 0290 08       		.uleb128 0x8
 5533 0291 F1010000 		.4byte	.LASF40
 5534 0295 01       		.byte	0x1
 5535 0296 59       		.byte	0x59
 5536 0297 AB000000 		.4byte	0xab
 5537 029b 02       		.byte	0x2
 5538 029c 23       		.byte	0x23
 5539 029d 24       		.uleb128 0x24
 5540 029e 08       		.uleb128 0x8
 5541 029f CB020000 		.4byte	.LASF41
 5542 02a3 01       		.byte	0x1
 5543 02a4 5A       		.byte	0x5a
 5544 02a5 AB000000 		.4byte	0xab
 5545 02a9 02       		.byte	0x2
 5546 02aa 23       		.byte	0x23
 5547 02ab 2C       		.uleb128 0x2c
 5548 02ac 00       		.byte	0x0
 5549 02ad 04       		.uleb128 0x4
 5550 02ae 34040000 		.4byte	.LASF42
 5551 02b2 01       		.byte	0x1
 5552 02b3 5B       		.byte	0x5b
 5553 02b4 30020000 		.4byte	0x230
 5554 02b8 07       		.uleb128 0x7
 5555 02b9 EB020000 		.4byte	0x2eb
 5556 02bd 20       		.byte	0x20
 5557 02be 01       		.byte	0x1
 5558 02bf 64       		.byte	0x64
 5559 02c0 08       		.uleb128 0x8
 5560 02c1 DB010000 		.4byte	.LASF43
 5561 02c5 01       		.byte	0x1
 5562 02c6 65       		.byte	0x65
 5563 02c7 25000000 		.4byte	0x25
 5564 02cb 02       		.byte	0x2
 5565 02cc 23       		.byte	0x23
 5566 02cd 00       		.uleb128 0x0
 5567 02ce 08       		.uleb128 0x8
 5568 02cf C1020000 		.4byte	.LASF44
 5569 02d3 01       		.byte	0x1
 5570 02d4 66       		.byte	0x66
 5571 02d5 EB020000 		.4byte	0x2eb
 5572 02d9 02       		.byte	0x2
 5573 02da 23       		.byte	0x23
 5574 02db 01       		.uleb128 0x1
 5575 02dc 08       		.uleb128 0x8
 5576 02dd 2D040000 		.4byte	.LASF45
 5577 02e1 01       		.byte	0x1
 5578 02e2 67       		.byte	0x67
ARM GAS  /cygdrive/c/DOCUME~1/mkwapisz/LOCALS~1/Temp/ccwCXJbO.s 			page 125


 5579 02e3 FB020000 		.4byte	0x2fb
 5580 02e7 02       		.byte	0x2
 5581 02e8 23       		.byte	0x23
 5582 02e9 0E       		.uleb128 0xe
 5583 02ea 00       		.byte	0x0
 5584 02eb 09       		.uleb128 0x9
 5585 02ec FB020000 		.4byte	0x2fb
 5586 02f0 25000000 		.4byte	0x25
 5587 02f4 0A       		.uleb128 0xa
 5588 02f5 81000000 		.4byte	0x81
 5589 02f9 0C       		.byte	0xc
 5590 02fa 00       		.byte	0x0
 5591 02fb 09       		.uleb128 0x9
 5592 02fc 0B030000 		.4byte	0x30b
 5593 0300 25000000 		.4byte	0x25
 5594 0304 0A       		.uleb128 0xa
 5595 0305 81000000 		.4byte	0x81
 5596 0309 10       		.byte	0x10
 5597 030a 00       		.byte	0x0
 5598 030b 04       		.uleb128 0x4
 5599 030c 79020000 		.4byte	.LASF46
 5600 0310 01       		.byte	0x1
 5601 0311 68       		.byte	0x68
 5602 0312 B8020000 		.4byte	0x2b8
 5603 0316 0D       		.uleb128 0xd
 5604 0317 5E030000 		.4byte	0x35e
 5605 031b F0030000 		.4byte	.LASF49
 5606 031f 01       		.byte	0x1
 5607 0320 D203     		.2byte	0x3d2
 5608 0322 01       		.byte	0x1
 5609 0323 00000000 		.4byte	.LFB13
 5610 0327 18000000 		.4byte	.LFE13
 5611 032b 01       		.byte	0x1
 5612 032c 5D       		.byte	0x5d
 5613 032d 0E       		.uleb128 0xe
 5614 032e B6030000 		.4byte	.LASF47
 5615 0332 01       		.byte	0x1
 5616 0333 D103     		.2byte	0x3d1
 5617 0335 7B000000 		.4byte	0x7b
 5618 0339 01       		.byte	0x1
 5619 033a 50       		.byte	0x50
 5620 033b 0F       		.uleb128 0xf
 5621 033c 51030000 		.4byte	.LASF48
 5622 0340 01       		.byte	0x1
 5623 0341 D103     		.2byte	0x3d1
 5624 0343 25000000 		.4byte	0x25
 5625 0347 00000000 		.4byte	.LLST1
 5626 034b 10       		.uleb128 0x10
 5627 034c 20040000 		.4byte	.LASF52
 5628 0350 01       		.byte	0x1
 5629 0351 D303     		.2byte	0x3d3
 5630 0353 8D090000 		.4byte	0x98d
 5631 0357 05       		.byte	0x5
 5632 0358 03       		.byte	0x3
 5633 0359 00000000 		.4byte	toHex.3480
 5634 035d 00       		.byte	0x0
 5635 035e 11       		.uleb128 0x11
ARM GAS  /cygdrive/c/DOCUME~1/mkwapisz/LOCALS~1/Temp/ccwCXJbO.s 			page 126


 5636 035f BC030000 		.4byte	0x3bc
 5637 0363 1C000000 		.4byte	.LASF50
 5638 0367 01       		.byte	0x1
 5639 0368 DB03     		.2byte	0x3db
 5640 036a 01       		.byte	0x1
 5641 036b 70000000 		.4byte	0x70
 5642 036f 18000000 		.4byte	.LFB14
 5643 0373 80000000 		.4byte	.LFE14
 5644 0377 13000000 		.4byte	.LLST2
 5645 037b 0F       		.uleb128 0xf
 5646 037c B6030000 		.4byte	.LASF47
 5647 0380 01       		.byte	0x1
 5648 0381 DA03     		.2byte	0x3da
 5649 0383 7B000000 		.4byte	0x7b
 5650 0387 32000000 		.4byte	.LLST3
 5651 038b 0F       		.uleb128 0xf
 5652 038c 52000000 		.4byte	.LASF51
 5653 0390 01       		.byte	0x1
 5654 0391 DA03     		.2byte	0x3da
 5655 0393 7B000000 		.4byte	0x7b
 5656 0397 45000000 		.4byte	.LLST4
 5657 039b 12       		.uleb128 0x12
 5658 039c 16010000 		.4byte	.LASF53
 5659 03a0 01       		.byte	0x1
 5660 03a1 DC03     		.2byte	0x3dc
 5661 03a3 25000000 		.4byte	0x25
 5662 03a7 63000000 		.4byte	.LLST5
 5663 03ab 12       		.uleb128 0x12
 5664 03ac 57030000 		.4byte	.LASF54
 5665 03b0 01       		.byte	0x1
 5666 03b1 DD03     		.2byte	0x3dd
 5667 03b3 70000000 		.4byte	0x70
 5668 03b7 97000000 		.4byte	.LLST6
 5669 03bb 00       		.byte	0x0
 5670 03bc 13       		.uleb128 0x13
 5671 03bd E4030000 		.4byte	0x3e4
 5672 03c1 4D010000 		.4byte	.LASF55
 5673 03c5 01       		.byte	0x1
 5674 03c6 B1       		.byte	0xb1
 5675 03c7 01       		.byte	0x1
 5676 03c8 80000000 		.4byte	.LFB2
 5677 03cc 9E000000 		.4byte	.LFE2
 5678 03d0 B5000000 		.4byte	.LLST7
 5679 03d4 14       		.uleb128 0x14
 5680 03d5 D1020000 		.4byte	.LASF56
 5681 03d9 01       		.byte	0x1
 5682 03da B0       		.byte	0xb0
 5683 03db E4030000 		.4byte	0x3e4
 5684 03df E0000000 		.4byte	.LLST8
 5685 03e3 00       		.byte	0x0
 5686 03e4 06       		.uleb128 0x6
 5687 03e5 04       		.byte	0x4
 5688 03e6 25020000 		.4byte	0x225
 5689 03ea 15       		.uleb128 0x15
 5690 03eb 24040000 		.4byte	0x424
 5691 03ef 24010000 		.4byte	.LASF57
 5692 03f3 01       		.byte	0x1
ARM GAS  /cygdrive/c/DOCUME~1/mkwapisz/LOCALS~1/Temp/ccwCXJbO.s 			page 127


 5693 03f4 AE01     		.2byte	0x1ae
 5694 03f6 01       		.byte	0x1
 5695 03f7 A0000000 		.4byte	.LFB7
 5696 03fb 6C010000 		.4byte	.LFE7
 5697 03ff F3000000 		.4byte	.LLST9
 5698 0403 0F       		.uleb128 0xf
 5699 0404 D1020000 		.4byte	.LASF56
 5700 0408 01       		.byte	0x1
 5701 0409 AD01     		.2byte	0x1ad
 5702 040b E4030000 		.4byte	0x3e4
 5703 040f 1E010000 		.4byte	.LLST10
 5704 0413 16       		.uleb128 0x16
 5705 0414 6B657900 		.ascii	"key\000"
 5706 0418 01       		.byte	0x1
 5707 0419 AD01     		.2byte	0x1ad
 5708 041b 25000000 		.4byte	0x25
 5709 041f 47010000 		.4byte	.LLST11
 5710 0423 00       		.byte	0x0
 5711 0424 15       		.uleb128 0x15
 5712 0425 5E040000 		.4byte	0x45e
 5713 0429 96010000 		.4byte	.LASF58
 5714 042d 01       		.byte	0x1
 5715 042e 7504     		.2byte	0x475
 5716 0430 01       		.byte	0x1
 5717 0431 6C010000 		.4byte	.LFB17
 5718 0435 D4010000 		.4byte	.LFE17
 5719 0439 7B010000 		.4byte	.LLST12
 5720 043d 0F       		.uleb128 0xf
 5721 043e 48020000 		.4byte	.LASF59
 5722 0442 01       		.byte	0x1
 5723 0443 7404     		.2byte	0x474
 5724 0445 25000000 		.4byte	0x25
 5725 0449 9A010000 		.4byte	.LLST13
 5726 044d 17       		.uleb128 0x17
 5727 044e 726F7700 		.ascii	"row\000"
 5728 0452 01       		.byte	0x1
 5729 0453 7604     		.2byte	0x476
 5730 0455 3E000000 		.4byte	0x3e
 5731 0459 B8010000 		.4byte	.LLST14
 5732 045d 00       		.byte	0x0
 5733 045e 13       		.uleb128 0x13
 5734 045f 85040000 		.4byte	0x485
 5735 0463 3F030000 		.4byte	.LASF60
 5736 0467 01       		.byte	0x1
 5737 0468 BE       		.byte	0xbe
 5738 0469 01       		.byte	0x1
 5739 046a D4010000 		.4byte	.LFB3
 5740 046e 9C020000 		.4byte	.LFE3
 5741 0472 CB010000 		.4byte	.LLST15
 5742 0476 18       		.uleb128 0x18
 5743 0477 B2020000 		.4byte	.LASF61
 5744 047b 01       		.byte	0x1
 5745 047c BF       		.byte	0xbf
 5746 047d 85040000 		.4byte	0x485
 5747 0481 02       		.byte	0x2
 5748 0482 91       		.byte	0x91
 5749 0483 68       		.sleb128 -24
ARM GAS  /cygdrive/c/DOCUME~1/mkwapisz/LOCALS~1/Temp/ccwCXJbO.s 			page 128


 5750 0484 00       		.byte	0x0
 5751 0485 09       		.uleb128 0x9
 5752 0486 95040000 		.4byte	0x495
 5753 048a 25000000 		.4byte	0x25
 5754 048e 0A       		.uleb128 0xa
 5755 048f 81000000 		.4byte	0x81
 5756 0493 03       		.byte	0x3
 5757 0494 00       		.byte	0x0
 5758 0495 13       		.uleb128 0x13
 5759 0496 BD040000 		.4byte	0x4bd
 5760 049a 13040000 		.4byte	.LASF62
 5761 049e 01       		.byte	0x1
 5762 049f FD       		.byte	0xfd
 5763 04a0 01       		.byte	0x1
 5764 04a1 9C020000 		.4byte	.LFB5
 5765 04a5 04030000 		.4byte	.LFE5
 5766 04a9 F6010000 		.4byte	.LLST16
 5767 04ad 14       		.uleb128 0x14
 5768 04ae D1020000 		.4byte	.LASF56
 5769 04b2 01       		.byte	0x1
 5770 04b3 FC       		.byte	0xfc
 5771 04b4 E4030000 		.4byte	0x3e4
 5772 04b8 15020000 		.4byte	.LLST17
 5773 04bc 00       		.byte	0x0
 5774 04bd 11       		.uleb128 0x11
 5775 04be 9B050000 		.4byte	0x59b
 5776 04c2 59000000 		.4byte	.LASF63
 5777 04c6 01       		.byte	0x1
 5778 04c7 9404     		.2byte	0x494
 5779 04c9 01       		.byte	0x1
 5780 04ca 70000000 		.4byte	0x70
 5781 04ce 04030000 		.4byte	.LFB18
 5782 04d2 AC060000 		.4byte	.LFE18
 5783 04d6 33020000 		.4byte	.LLST18
 5784 04da 0F       		.uleb128 0xf
 5785 04db 00040000 		.4byte	.LASF64
 5786 04df 01       		.byte	0x1
 5787 04e0 9304     		.2byte	0x493
 5788 04e2 7B000000 		.4byte	0x7b
 5789 04e6 5F020000 		.4byte	.LLST19
 5790 04ea 10       		.uleb128 0x10
 5791 04eb 92000000 		.4byte	.LASF65
 5792 04ef 01       		.byte	0x1
 5793 04f0 9504     		.2byte	0x495
 5794 04f2 25000000 		.4byte	0x25
 5795 04f6 02       		.byte	0x2
 5796 04f7 74       		.byte	0x74
 5797 04f8 00       		.sleb128 0
 5798 04f9 12       		.uleb128 0x12
 5799 04fa 43000000 		.4byte	.LASF66
 5800 04fe 01       		.byte	0x1
 5801 04ff 9604     		.2byte	0x496
 5802 0501 25000000 		.4byte	0x25
 5803 0505 7E020000 		.4byte	.LLST20
 5804 0509 17       		.uleb128 0x17
 5805 050a 6900     		.ascii	"i\000"
 5806 050c 01       		.byte	0x1
ARM GAS  /cygdrive/c/DOCUME~1/mkwapisz/LOCALS~1/Temp/ccwCXJbO.s 			page 129


 5807 050d 9704     		.2byte	0x497
 5808 050f 25000000 		.4byte	0x25
 5809 0513 D3020000 		.4byte	.LLST21
 5810 0517 12       		.uleb128 0x12
 5811 0518 4A030000 		.4byte	.LASF67
 5812 051c 01       		.byte	0x1
 5813 051d 9804     		.2byte	0x498
 5814 051f 25000000 		.4byte	0x25
 5815 0523 E6020000 		.4byte	.LLST22
 5816 0527 12       		.uleb128 0x12
 5817 0528 48020000 		.4byte	.LASF59
 5818 052c 01       		.byte	0x1
 5819 052d 9904     		.2byte	0x499
 5820 052f 25000000 		.4byte	0x25
 5821 0533 0F030000 		.4byte	.LLST23
 5822 0537 10       		.uleb128 0x10
 5823 0538 8D030000 		.4byte	.LASF68
 5824 053c 01       		.byte	0x1
 5825 053d 9A04     		.2byte	0x49a
 5826 053f 9B050000 		.4byte	0x59b
 5827 0543 02       		.byte	0x2
 5828 0544 91       		.byte	0x91
 5829 0545 78       		.sleb128 -8
 5830 0546 12       		.uleb128 0x12
 5831 0547 EC000000 		.4byte	.LASF69
 5832 054b 01       		.byte	0x1
 5833 054c 9B04     		.2byte	0x49b
 5834 054e 25000000 		.4byte	0x25
 5835 0552 22030000 		.4byte	.LLST24
 5836 0556 10       		.uleb128 0x10
 5837 0557 83020000 		.4byte	.LASF70
 5838 055b 01       		.byte	0x1
 5839 055c 9C04     		.2byte	0x49c
 5840 055e A0050000 		.4byte	0x5a0
 5841 0562 03       		.byte	0x3
 5842 0563 91       		.byte	0x91
 5843 0564 BC7F     		.sleb128 -68
 5844 0566 10       		.uleb128 0x10
 5845 0567 71020000 		.4byte	.LASF71
 5846 056b 01       		.byte	0x1
 5847 056c 9D04     		.2byte	0x49d
 5848 056e 25000000 		.4byte	0x25
 5849 0572 02       		.byte	0x2
 5850 0573 91       		.byte	0x91
 5851 0574 48       		.sleb128 -56
 5852 0575 19       		.uleb128 0x19
 5853 0576 636E7400 		.ascii	"cnt\000"
 5854 057a 01       		.byte	0x1
 5855 057b 9E04     		.2byte	0x49e
 5856 057d 3E000000 		.4byte	0x3e
 5857 0581 02       		.byte	0x2
 5858 0582 91       		.byte	0x91
 5859 0583 4C       		.sleb128 -52
 5860 0584 1A       		.uleb128 0x1a
 5861 0585 F4040000 		.4byte	.LBB2
 5862 0589 1A050000 		.4byte	.LBE2
 5863 058d 1B       		.uleb128 0x1b
ARM GAS  /cygdrive/c/DOCUME~1/mkwapisz/LOCALS~1/Temp/ccwCXJbO.s 			page 130


 5864 058e E2020000 		.4byte	.LASF72
 5865 0592 01       		.byte	0x1
 5866 0593 1105     		.2byte	0x511
 5867 0595 7B000000 		.4byte	0x7b
 5868 0599 00       		.byte	0x0
 5869 059a 00       		.byte	0x0
 5870 059b 1C       		.uleb128 0x1c
 5871 059c 3E000000 		.4byte	0x3e
 5872 05a0 09       		.uleb128 0x9
 5873 05a1 B0050000 		.4byte	0x5b0
 5874 05a5 25000000 		.4byte	0x25
 5875 05a9 0A       		.uleb128 0xa
 5876 05aa 81000000 		.4byte	0x81
 5877 05ae 27       		.byte	0x27
 5878 05af 00       		.byte	0x0
 5879 05b0 15       		.uleb128 0x15
 5880 05b1 EA050000 		.4byte	0x5ea
 5881 05b5 2F010000 		.4byte	.LASF73
 5882 05b9 01       		.byte	0x1
 5883 05ba ED01     		.2byte	0x1ed
 5884 05bc 01       		.byte	0x1
 5885 05bd AC060000 		.4byte	.LFB8
 5886 05c1 CE060000 		.4byte	.LFE8
 5887 05c5 4B030000 		.4byte	.LLST25
 5888 05c9 0F       		.uleb128 0xf
 5889 05ca 72030000 		.4byte	.LASF74
 5890 05ce 01       		.byte	0x1
 5891 05cf EC01     		.2byte	0x1ec
 5892 05d1 7B000000 		.4byte	0x7b
 5893 05d5 6A030000 		.4byte	.LLST26
 5894 05d9 0F       		.uleb128 0xf
 5895 05da 08040000 		.4byte	.LASF75
 5896 05de 01       		.byte	0x1
 5897 05df EC01     		.2byte	0x1ec
 5898 05e1 25000000 		.4byte	0x25
 5899 05e5 88030000 		.4byte	.LLST27
 5900 05e9 00       		.byte	0x0
 5901 05ea 1D       		.uleb128 0x1d
 5902 05eb 65010000 		.4byte	.LASF83
 5903 05ef 01       		.byte	0x1
 5904 05f0 E6       		.byte	0xe6
 5905 05f1 01       		.byte	0x1
 5906 05f2 D0060000 		.4byte	.LFB4
 5907 05f6 10070000 		.4byte	.LFE4
 5908 05fa A6030000 		.4byte	.LLST28
 5909 05fe 1E       		.uleb128 0x1e
 5910 05ff 43060000 		.4byte	0x643
 5911 0603 38020000 		.4byte	.LASF76
 5912 0607 01       		.byte	0x1
 5913 0608 0204     		.2byte	0x402
 5914 060a 01       		.byte	0x1
 5915 060b 70000000 		.4byte	0x70
 5916 060f 01       		.byte	0x1
 5917 0610 1B       		.uleb128 0x1b
 5918 0611 92000000 		.4byte	.LASF65
 5919 0615 01       		.byte	0x1
 5920 0616 0304     		.2byte	0x403
ARM GAS  /cygdrive/c/DOCUME~1/mkwapisz/LOCALS~1/Temp/ccwCXJbO.s 			page 131


 5921 0618 25000000 		.4byte	0x25
 5922 061c 1F       		.uleb128 0x1f
 5923 061d 1B       		.uleb128 0x1b
 5924 061e 09020000 		.4byte	.LASF77
 5925 0622 01       		.byte	0x1
 5926 0623 0F04     		.2byte	0x40f
 5927 0625 25000000 		.4byte	0x25
 5928 0629 1B       		.uleb128 0x1b
 5929 062a 6B030000 		.4byte	.LASF78
 5930 062e 01       		.byte	0x1
 5931 062f 0F04     		.2byte	0x40f
 5932 0631 25000000 		.4byte	0x25
 5933 0635 20       		.uleb128 0x20
 5934 0636 746D7000 		.ascii	"tmp\000"
 5935 063a 01       		.byte	0x1
 5936 063b 0F04     		.2byte	0x40f
 5937 063d 25000000 		.4byte	0x25
 5938 0641 00       		.byte	0x0
 5939 0642 00       		.byte	0x0
 5940 0643 11       		.uleb128 0x11
 5941 0644 CF060000 		.4byte	0x6cf
 5942 0648 C7010000 		.4byte	.LASF79
 5943 064c 01       		.byte	0x1
 5944 064d 4104     		.2byte	0x441
 5945 064f 01       		.byte	0x1
 5946 0650 70000000 		.4byte	0x70
 5947 0654 10070000 		.4byte	.LFB16
 5948 0658 24090000 		.4byte	.LFE16
 5949 065c D1030000 		.4byte	.LLST29
 5950 0660 16       		.uleb128 0x16
 5951 0661 6B657900 		.ascii	"key\000"
 5952 0665 01       		.byte	0x1
 5953 0666 4004     		.2byte	0x440
 5954 0668 25000000 		.4byte	0x25
 5955 066c FC030000 		.4byte	.LLST30
 5956 0670 0F       		.uleb128 0xf
 5957 0671 AC020000 		.4byte	.LASF80
 5958 0675 01       		.byte	0x1
 5959 0676 4004     		.2byte	0x440
 5960 0678 70000000 		.4byte	0x70
 5961 067c 1B040000 		.4byte	.LLST31
 5962 0680 19       		.uleb128 0x19
 5963 0681 62756600 		.ascii	"buf\000"
 5964 0685 01       		.byte	0x1
 5965 0686 4204     		.2byte	0x442
 5966 0688 CF060000 		.4byte	0x6cf
 5967 068c 02       		.byte	0x2
 5968 068d 91       		.byte	0x91
 5969 068e 5A       		.sleb128 -38
 5970 068f 21       		.uleb128 0x21
 5971 0690 FE050000 		.4byte	0x5fe
 5972 0694 00000000 		.4byte	.Ldebug_ranges0+0x0
 5973 0698 01       		.byte	0x1
 5974 0699 4404     		.2byte	0x444
 5975 069b 22       		.uleb128 0x22
 5976 069c 28000000 		.4byte	.Ldebug_ranges0+0x28
 5977 06a0 23       		.uleb128 0x23
ARM GAS  /cygdrive/c/DOCUME~1/mkwapisz/LOCALS~1/Temp/ccwCXJbO.s 			page 132


 5978 06a1 10060000 		.4byte	0x610
 5979 06a5 02       		.byte	0x2
 5980 06a6 74       		.byte	0x74
 5981 06a7 00       		.sleb128 0
 5982 06a8 1A       		.uleb128 0x1a
 5983 06a9 4E070000 		.4byte	.LBB11
 5984 06ad EE070000 		.4byte	.LBE11
 5985 06b1 24       		.uleb128 0x24
 5986 06b2 1D060000 		.4byte	0x61d
 5987 06b6 3A040000 		.4byte	.LLST32
 5988 06ba 24       		.uleb128 0x24
 5989 06bb 29060000 		.4byte	0x629
 5990 06bf 66040000 		.4byte	.LLST33
 5991 06c3 24       		.uleb128 0x24
 5992 06c4 35060000 		.4byte	0x635
 5993 06c8 A9040000 		.4byte	.LLST34
 5994 06cc 00       		.byte	0x0
 5995 06cd 00       		.byte	0x0
 5996 06ce 00       		.byte	0x0
 5997 06cf 09       		.uleb128 0x9
 5998 06d0 DF060000 		.4byte	0x6df
 5999 06d4 25000000 		.4byte	0x25
 6000 06d8 0A       		.uleb128 0xa
 6001 06d9 81000000 		.4byte	0x81
 6002 06dd 0D       		.byte	0xd
 6003 06de 00       		.byte	0x0
 6004 06df 1E       		.uleb128 0x1e
 6005 06e0 2E070000 		.4byte	0x72e
 6006 06e4 01010000 		.4byte	.LASF81
 6007 06e8 01       		.byte	0x1
 6008 06e9 5803     		.2byte	0x358
 6009 06eb 01       		.byte	0x1
 6010 06ec 70000000 		.4byte	0x70
 6011 06f0 01       		.byte	0x1
 6012 06f1 25       		.uleb128 0x25
 6013 06f2 00040000 		.4byte	.LASF64
 6014 06f6 01       		.byte	0x1
 6015 06f7 5703     		.2byte	0x357
 6016 06f9 7B000000 		.4byte	0x7b
 6017 06fd 1B       		.uleb128 0x1b
 6018 06fe 8D030000 		.4byte	.LASF68
 6019 0702 01       		.byte	0x1
 6020 0703 5903     		.2byte	0x359
 6021 0705 9B050000 		.4byte	0x59b
 6022 0709 1B       		.uleb128 0x1b
 6023 070a A2020000 		.4byte	.LASF82
 6024 070e 01       		.byte	0x1
 6025 070f 5A03     		.2byte	0x35a
 6026 0711 25000000 		.4byte	0x25
 6027 0715 1B       		.uleb128 0x1b
 6028 0716 92000000 		.4byte	.LASF65
 6029 071a 01       		.byte	0x1
 6030 071b 5B03     		.2byte	0x35b
 6031 071d 25000000 		.4byte	0x25
 6032 0721 20       		.uleb128 0x20
 6033 0722 636E7400 		.ascii	"cnt\000"
 6034 0726 01       		.byte	0x1
ARM GAS  /cygdrive/c/DOCUME~1/mkwapisz/LOCALS~1/Temp/ccwCXJbO.s 			page 133


 6035 0727 5C03     		.2byte	0x35c
 6036 0729 3E000000 		.4byte	0x3e
 6037 072d 00       		.byte	0x0
 6038 072e 26       		.uleb128 0x26
 6039 072f C2000000 		.4byte	.LASF84
 6040 0733 01       		.byte	0x1
 6041 0734 1E03     		.2byte	0x31e
 6042 0736 01       		.byte	0x1
 6043 0737 01       		.byte	0x1
 6044 0738 1E       		.uleb128 0x1e
 6045 0739 63070000 		.4byte	0x763
 6046 073d A3010000 		.4byte	.LASF85
 6047 0741 01       		.byte	0x1
 6048 0742 2E03     		.2byte	0x32e
 6049 0744 01       		.byte	0x1
 6050 0745 70000000 		.4byte	0x70
 6051 0749 01       		.byte	0x1
 6052 074a 25       		.uleb128 0x25
 6053 074b 00040000 		.4byte	.LASF64
 6054 074f 01       		.byte	0x1
 6055 0750 2D03     		.2byte	0x32d
 6056 0752 7B000000 		.4byte	0x7b
 6057 0756 1B       		.uleb128 0x1b
 6058 0757 92000000 		.4byte	.LASF65
 6059 075b 01       		.byte	0x1
 6060 075c 2F03     		.2byte	0x32f
 6061 075e 25000000 		.4byte	0x25
 6062 0762 00       		.byte	0x0
 6063 0763 27       		.uleb128 0x27
 6064 0764 E6070000 		.4byte	0x7e6
 6065 0768 F8020000 		.4byte	.LASF86
 6066 076c 01       		.byte	0x1
 6067 076d 1801     		.2byte	0x118
 6068 076f 01       		.byte	0x1
 6069 0770 01       		.byte	0x1
 6070 0771 28       		.uleb128 0x28
 6071 0772 6B657900 		.ascii	"key\000"
 6072 0776 01       		.byte	0x1
 6073 0777 1701     		.2byte	0x117
 6074 0779 25000000 		.4byte	0x25
 6075 077d 1B       		.uleb128 0x1b
 6076 077e 8B020000 		.4byte	.LASF87
 6077 0782 01       		.byte	0x1
 6078 0783 1901     		.2byte	0x119
 6079 0785 E4030000 		.4byte	0x3e4
 6080 0789 1B       		.uleb128 0x1b
 6081 078a ED020000 		.4byte	.LASF88
 6082 078e 01       		.byte	0x1
 6083 078f 1A01     		.2byte	0x11a
 6084 0791 70000000 		.4byte	0x70
 6085 0795 20       		.uleb128 0x20
 6086 0796 64697200 		.ascii	"dir\000"
 6087 079a 01       		.byte	0x1
 6088 079b 1B01     		.2byte	0x11b
 6089 079d 50000000 		.4byte	0x50
 6090 07a1 29       		.uleb128 0x29
 6091 07a2 B3070000 		.4byte	0x7b3
ARM GAS  /cygdrive/c/DOCUME~1/mkwapisz/LOCALS~1/Temp/ccwCXJbO.s 			page 134


 6092 07a6 1B       		.uleb128 0x1b
 6093 07a7 52020000 		.4byte	.LASF89
 6094 07ab 01       		.byte	0x1
 6095 07ac 2001     		.2byte	0x120
 6096 07ae 25000000 		.4byte	0x25
 6097 07b2 00       		.byte	0x0
 6098 07b3 1F       		.uleb128 0x1f
 6099 07b4 1B       		.uleb128 0x1b
 6100 07b5 D7000000 		.4byte	.LASF90
 6101 07b9 01       		.byte	0x1
 6102 07ba 5E01     		.2byte	0x15e
 6103 07bc AB000000 		.4byte	0xab
 6104 07c0 1B       		.uleb128 0x1b
 6105 07c1 7E000000 		.4byte	.LASF91
 6106 07c5 01       		.byte	0x1
 6107 07c6 5F01     		.2byte	0x15f
 6108 07c8 AB000000 		.4byte	0xab
 6109 07cc 1B       		.uleb128 0x1b
 6110 07cd D9020000 		.4byte	.LASF92
 6111 07d1 01       		.byte	0x1
 6112 07d2 6001     		.2byte	0x160
 6113 07d4 AB000000 		.4byte	0xab
 6114 07d8 1B       		.uleb128 0x1b
 6115 07d9 97030000 		.4byte	.LASF16
 6116 07dd 01       		.byte	0x1
 6117 07de 6201     		.2byte	0x162
 6118 07e0 25000000 		.4byte	0x25
 6119 07e4 00       		.byte	0x0
 6120 07e5 00       		.byte	0x0
 6121 07e6 2A       		.uleb128 0x2a
 6122 07e7 78090000 		.4byte	0x978
 6123 07eb 01       		.byte	0x1
 6124 07ec 5D030000 		.4byte	.LASF108
 6125 07f0 01       		.byte	0x1
 6126 07f1 0202     		.2byte	0x202
 6127 07f3 01       		.byte	0x1
 6128 07f4 24090000 		.4byte	.LFB9
 6129 07f8 30170000 		.4byte	.LFE9
 6130 07fc EC040000 		.4byte	.LLST35
 6131 0800 12       		.uleb128 0x12
 6132 0801 99000000 		.4byte	.LASF93
 6133 0805 01       		.byte	0x1
 6134 0806 0302     		.2byte	0x203
 6135 0808 70000000 		.4byte	0x70
 6136 080c 18050000 		.4byte	.LLST36
 6137 0810 12       		.uleb128 0x12
 6138 0811 43000000 		.4byte	.LASF66
 6139 0815 01       		.byte	0x1
 6140 0816 0402     		.2byte	0x204
 6141 0818 70000000 		.4byte	0x70
 6142 081c 47050000 		.4byte	.LLST37
 6143 0820 1B       		.uleb128 0x1b
 6144 0821 A2020000 		.4byte	.LASF82
 6145 0825 01       		.byte	0x1
 6146 0826 0502     		.2byte	0x205
 6147 0828 70000000 		.4byte	0x70
 6148 082c 10       		.uleb128 0x10
ARM GAS  /cygdrive/c/DOCUME~1/mkwapisz/LOCALS~1/Temp/ccwCXJbO.s 			page 135


 6149 082d 1B030000 		.4byte	.LASF94
 6150 0831 01       		.byte	0x1
 6151 0832 0602     		.2byte	0x206
 6152 0834 9D010000 		.4byte	0x19d
 6153 0838 03       		.byte	0x3
 6154 0839 91       		.byte	0x91
 6155 083a A47F     		.sleb128 -92
 6156 083c 10       		.uleb128 0x10
 6157 083d C1020000 		.4byte	.LASF44
 6158 0841 01       		.byte	0x1
 6159 0842 0702     		.2byte	0x207
 6160 0844 EB020000 		.4byte	0x2eb
 6161 0848 02       		.byte	0x2
 6162 0849 91       		.byte	0x91
 6163 084a 57       		.sleb128 -41
 6164 084b 2B       		.uleb128 0x2b
 6165 084c 8F080000 		.4byte	0x88f
 6166 0850 DF060000 		.4byte	0x6df
 6167 0854 2A0A0000 		.4byte	.LBB25
 6168 0858 260C0000 		.4byte	.LBE25
 6169 085c 01       		.byte	0x1
 6170 085d 3702     		.2byte	0x237
 6171 085f 2C       		.uleb128 0x2c
 6172 0860 F1060000 		.4byte	0x6f1
 6173 0864 22       		.uleb128 0x22
 6174 0865 40000000 		.4byte	.Ldebug_ranges0+0x40
 6175 0869 24       		.uleb128 0x24
 6176 086a FD060000 		.4byte	0x6fd
 6177 086e F5050000 		.4byte	.LLST38
 6178 0872 24       		.uleb128 0x24
 6179 0873 09070000 		.4byte	0x709
 6180 0877 2D060000 		.4byte	.LLST39
 6181 087b 24       		.uleb128 0x24
 6182 087c 15070000 		.4byte	0x715
 6183 0880 AE060000 		.4byte	.LLST40
 6184 0884 24       		.uleb128 0x24
 6185 0885 21070000 		.4byte	0x721
 6186 0889 E6060000 		.4byte	.LLST41
 6187 088d 00       		.byte	0x0
 6188 088e 00       		.byte	0x0
 6189 088f 2D       		.uleb128 0x2d
 6190 0890 ED080000 		.4byte	0x8ed
 6191 0894 78000000 		.4byte	.Ldebug_ranges0+0x78
 6192 0898 19       		.uleb128 0x19
 6193 0899 636E7400 		.ascii	"cnt\000"
 6194 089d 01       		.byte	0x1
 6195 089e 4B02     		.2byte	0x24b
 6196 08a0 3E000000 		.4byte	0x3e
 6197 08a4 03       		.byte	0x3
 6198 08a5 91       		.byte	0x91
 6199 08a6 F47E     		.sleb128 -140
 6200 08a8 17       		.uleb128 0x17
 6201 08a9 6B657900 		.ascii	"key\000"
 6202 08ad 01       		.byte	0x1
 6203 08ae 4C02     		.2byte	0x24c
 6204 08b0 25000000 		.4byte	0x25
 6205 08b4 5C070000 		.4byte	.LLST42
ARM GAS  /cygdrive/c/DOCUME~1/mkwapisz/LOCALS~1/Temp/ccwCXJbO.s 			page 136


 6206 08b8 21       		.uleb128 0x21
 6207 08b9 2E070000 		.4byte	0x72e
 6208 08bd 90000000 		.4byte	.Ldebug_ranges0+0x90
 6209 08c1 01       		.byte	0x1
 6210 08c2 5802     		.2byte	0x258
 6211 08c4 2E       		.uleb128 0x2e
 6212 08c5 DE080000 		.4byte	0x8de
 6213 08c9 38070000 		.4byte	0x738
 6214 08cd A8000000 		.4byte	.Ldebug_ranges0+0xa8
 6215 08d1 01       		.byte	0x1
 6216 08d2 5F02     		.2byte	0x25f
 6217 08d4 2F       		.uleb128 0x2f
 6218 08d5 4A070000 		.4byte	0x74a
 6219 08d9 DD070000 		.4byte	.LLST43
 6220 08dd 00       		.byte	0x0
 6221 08de 22       		.uleb128 0x22
 6222 08df C8000000 		.4byte	.Ldebug_ranges0+0xc8
 6223 08e3 23       		.uleb128 0x23
 6224 08e4 56070000 		.4byte	0x756
 6225 08e8 02       		.byte	0x2
 6226 08e9 74       		.byte	0x74
 6227 08ea 00       		.sleb128 0
 6228 08eb 00       		.byte	0x0
 6229 08ec 00       		.byte	0x0
 6230 08ed 1A       		.uleb128 0x1a
 6231 08ee 000F0000 		.4byte	.LBB43
 6232 08f2 72160000 		.4byte	.LBE43
 6233 08f6 17       		.uleb128 0x17
 6234 08f7 6B657900 		.ascii	"key\000"
 6235 08fb 01       		.byte	0x1
 6236 08fc AD02     		.2byte	0x2ad
 6237 08fe 78090000 		.4byte	0x978
 6238 0902 F0070000 		.4byte	.LLST44
 6239 0906 30       		.uleb128 0x30
 6240 0907 63070000 		.4byte	0x763
 6241 090b E60F0000 		.4byte	.LBB44
 6242 090f EC150000 		.4byte	.LBE44
 6243 0913 01       		.byte	0x1
 6244 0914 E102     		.2byte	0x2e1
 6245 0916 2C       		.uleb128 0x2c
 6246 0917 71070000 		.4byte	0x771
 6247 091b 2D       		.uleb128 0x2d
 6248 091c 53090000 		.4byte	0x953
 6249 0920 E8000000 		.4byte	.Ldebug_ranges0+0xe8
 6250 0924 24       		.uleb128 0x24
 6251 0925 7D070000 		.4byte	0x77d
 6252 0929 3F080000 		.4byte	.LLST45
 6253 092d 24       		.uleb128 0x24
 6254 092e 89070000 		.4byte	0x789
 6255 0932 6E080000 		.4byte	.LLST46
 6256 0936 24       		.uleb128 0x24
 6257 0937 95070000 		.4byte	0x795
 6258 093b 9D080000 		.4byte	.LLST47
 6259 093f 1A       		.uleb128 0x1a
 6260 0940 FE0F0000 		.4byte	.LBB46
 6261 0944 AA110000 		.4byte	.LBE46
 6262 0948 24       		.uleb128 0x24
ARM GAS  /cygdrive/c/DOCUME~1/mkwapisz/LOCALS~1/Temp/ccwCXJbO.s 			page 137


 6263 0949 A6070000 		.4byte	0x7a6
 6264 094d CC080000 		.4byte	.LLST48
 6265 0951 00       		.byte	0x0
 6266 0952 00       		.byte	0x0
 6267 0953 22       		.uleb128 0x22
 6268 0954 58010000 		.4byte	.Ldebug_ranges0+0x158
 6269 0958 31       		.uleb128 0x31
 6270 0959 B4070000 		.4byte	0x7b4
 6271 095d 24       		.uleb128 0x24
 6272 095e C0070000 		.4byte	0x7c0
 6273 0962 FB080000 		.4byte	.LLST49
 6274 0966 24       		.uleb128 0x24
 6275 0967 CC070000 		.4byte	0x7cc
 6276 096b 23090000 		.4byte	.LLST50
 6277 096f 31       		.uleb128 0x31
 6278 0970 D8070000 		.4byte	0x7d8
 6279 0974 00       		.byte	0x0
 6280 0975 00       		.byte	0x0
 6281 0976 00       		.byte	0x0
 6282 0977 00       		.byte	0x0
 6283 0978 1C       		.uleb128 0x1c
 6284 0979 25000000 		.4byte	0x25
 6285 097d 09       		.uleb128 0x9
 6286 097e 8D090000 		.4byte	0x98d
 6287 0982 25000000 		.4byte	0x25
 6288 0986 0A       		.uleb128 0xa
 6289 0987 81000000 		.4byte	0x81
 6290 098b 0F       		.byte	0xf
 6291 098c 00       		.byte	0x0
 6292 098d 32       		.uleb128 0x32
 6293 098e 7D090000 		.4byte	0x97d
 6294 0992 09       		.uleb128 0x9
 6295 0993 A2090000 		.4byte	0x9a2
 6296 0997 0B030000 		.4byte	0x30b
 6297 099b 0A       		.uleb128 0xa
 6298 099c 81000000 		.4byte	0x81
 6299 09a0 04       		.byte	0x4
 6300 09a1 00       		.byte	0x0
 6301 09a2 18       		.uleb128 0x18
 6302 09a3 F4000000 		.4byte	.LASF95
 6303 09a7 01       		.byte	0x1
 6304 09a8 7A       		.byte	0x7a
 6305 09a9 92090000 		.4byte	0x992
 6306 09ad 05       		.byte	0x5
 6307 09ae 03       		.byte	0x3
 6308 09af 0C000000 		.4byte	foundBtUnits
 6309 09b3 18       		.uleb128 0x18
 6310 09b4 10020000 		.4byte	.LASF96
 6311 09b8 01       		.byte	0x1
 6312 09b9 7C       		.byte	0x7c
 6313 09ba 25000000 		.4byte	0x25
 6314 09be 05       		.byte	0x5
 6315 09bf 03       		.byte	0x3
 6316 09c0 AC000000 		.4byte	gameType
 6317 09c4 18       		.uleb128 0x18
 6318 09c5 2A030000 		.4byte	.LASF97
 6319 09c9 01       		.byte	0x1
ARM GAS  /cygdrive/c/DOCUME~1/mkwapisz/LOCALS~1/Temp/ccwCXJbO.s 			page 138


 6320 09ca 7E       		.byte	0x7e
 6321 09cb 25020000 		.4byte	0x225
 6322 09cf 05       		.byte	0x5
 6323 09d0 03       		.byte	0x3
 6324 09d1 00000000 		.4byte	player1
 6325 09d5 18       		.uleb128 0x18
 6326 09d6 32030000 		.4byte	.LASF98
 6327 09da 01       		.byte	0x1
 6328 09db 88       		.byte	0x88
 6329 09dc 25020000 		.4byte	0x225
 6330 09e0 05       		.byte	0x5
 6331 09e1 03       		.byte	0x3
 6332 09e2 10000000 		.4byte	player2
 6333 09e6 18       		.uleb128 0x18
 6334 09e7 39000000 		.4byte	.LASF99
 6335 09eb 01       		.byte	0x1
 6336 09ec 92       		.byte	0x92
 6337 09ed AD020000 		.4byte	0x2ad
 6338 09f1 05       		.byte	0x5
 6339 09f2 03       		.byte	0x3
 6340 09f3 28000000 		.4byte	ball
 6341 09f7 18       		.uleb128 0x18
 6342 09f8 9C030000 		.4byte	.LASF100
 6343 09fc 01       		.byte	0x1
 6344 09fd 94       		.byte	0x94
 6345 09fe E4030000 		.4byte	0x3e4
 6346 0a02 05       		.byte	0x5
 6347 0a03 03       		.byte	0x3
 6348 0a04 20000000 		.4byte	pActivePlayer
 6349 0a08 18       		.uleb128 0x18
 6350 0a09 3E010000 		.4byte	.LASF101
 6351 0a0d 01       		.byte	0x1
 6352 0a0e 96       		.byte	0x96
 6353 0a0f E4030000 		.4byte	0x3e4
 6354 0a13 05       		.byte	0x5
 6355 0a14 03       		.byte	0x3
 6356 0a15 24000000 		.4byte	pServingPlayer
 6357 0a19 18       		.uleb128 0x18
 6358 0a1a 59020000 		.4byte	.LASF102
 6359 0a1e 01       		.byte	0x1
 6360 0a1f 97       		.byte	0x97
 6361 0a20 70000000 		.4byte	0x70
 6362 0a24 05       		.byte	0x5
 6363 0a25 03       		.byte	0x3
 6364 0a26 5C000000 		.4byte	serving
 6365 0a2a 18       		.uleb128 0x18
 6366 0a2b BB030000 		.4byte	.LASF34
 6367 0a2f 01       		.byte	0x1
 6368 0a30 99       		.byte	0x99
 6369 0a31 3E000000 		.4byte	0x3e
 6370 0a35 05       		.byte	0x5
 6371 0a36 03       		.byte	0x3
 6372 0a37 04000000 		.4byte	lastMove
 6373 0a3b 18       		.uleb128 0x18
 6374 0a3c 7B030000 		.4byte	.LASF103
 6375 0a40 01       		.byte	0x1
 6376 0a41 9A       		.byte	0x9a
ARM GAS  /cygdrive/c/DOCUME~1/mkwapisz/LOCALS~1/Temp/ccwCXJbO.s 			page 139


 6377 0a42 3E000000 		.4byte	0x3e
 6378 0a46 05       		.byte	0x5
 6379 0a47 03       		.byte	0x3
 6380 0a48 08000000 		.4byte	lastStatus
 6381 0a4c 18       		.uleb128 0x18
 6382 0a4d 00000000 		.4byte	.LASF104
 6383 0a51 01       		.byte	0x1
 6384 0a52 9C       		.byte	0x9c
 6385 0a53 25000000 		.4byte	0x25
 6386 0a57 05       		.byte	0x5
 6387 0a58 03       		.byte	0x3
 6388 0a59 00000000 		.4byte	remoteClientKey
 6389 0a5d 10       		.uleb128 0x10
 6390 0a5e EC000000 		.4byte	.LASF69
 6391 0a62 01       		.byte	0x1
 6392 0a63 1503     		.2byte	0x315
 6393 0a65 25000000 		.4byte	0x25
 6394 0a69 05       		.byte	0x5
 6395 0a6a 03       		.byte	0x3
 6396 0a6b AD000000 		.4byte	recvPos
 6397 0a6f 10       		.uleb128 0x10
 6398 0a70 83020000 		.4byte	.LASF70
 6399 0a74 01       		.byte	0x1
 6400 0a75 1603     		.2byte	0x316
 6401 0a77 A0050000 		.4byte	0x5a0
 6402 0a7b 05       		.byte	0x5
 6403 0a7c 03       		.byte	0x3
 6404 0a7d AE000000 		.4byte	recvBuf
 6405 0a81 33       		.uleb128 0x33
 6406 0a82 6D7300   		.ascii	"ms\000"
 6407 0a85 01       		.byte	0x1
 6408 0a86 A2       		.byte	0xa2
 6409 0a87 9B050000 		.4byte	0x59b
 6410 0a8b 01       		.byte	0x1
 6411 0a8c 01       		.byte	0x1
 6412 0a8d 00       		.byte	0x0
 6413              		.section	.debug_abbrev
 6414 0000 01       		.uleb128 0x1
 6415 0001 11       		.uleb128 0x11
 6416 0002 01       		.byte	0x1
 6417 0003 10       		.uleb128 0x10
 6418 0004 06       		.uleb128 0x6
 6419 0005 12       		.uleb128 0x12
 6420 0006 01       		.uleb128 0x1
 6421 0007 11       		.uleb128 0x11
 6422 0008 01       		.uleb128 0x1
 6423 0009 25       		.uleb128 0x25
 6424 000a 0E       		.uleb128 0xe
 6425 000b 13       		.uleb128 0x13
 6426 000c 0B       		.uleb128 0xb
 6427 000d 03       		.uleb128 0x3
 6428 000e 0E       		.uleb128 0xe
 6429 000f 1B       		.uleb128 0x1b
 6430 0010 0E       		.uleb128 0xe
 6431 0011 00       		.byte	0x0
 6432 0012 00       		.byte	0x0
 6433 0013 02       		.uleb128 0x2
ARM GAS  /cygdrive/c/DOCUME~1/mkwapisz/LOCALS~1/Temp/ccwCXJbO.s 			page 140


 6434 0014 16       		.uleb128 0x16
 6435 0015 00       		.byte	0x0
 6436 0016 03       		.uleb128 0x3
 6437 0017 08       		.uleb128 0x8
 6438 0018 3A       		.uleb128 0x3a
 6439 0019 0B       		.uleb128 0xb
 6440 001a 3B       		.uleb128 0x3b
 6441 001b 0B       		.uleb128 0xb
 6442 001c 49       		.uleb128 0x49
 6443 001d 13       		.uleb128 0x13
 6444 001e 00       		.byte	0x0
 6445 001f 00       		.byte	0x0
 6446 0020 03       		.uleb128 0x3
 6447 0021 24       		.uleb128 0x24
 6448 0022 00       		.byte	0x0
 6449 0023 03       		.uleb128 0x3
 6450 0024 0E       		.uleb128 0xe
 6451 0025 0B       		.uleb128 0xb
 6452 0026 0B       		.uleb128 0xb
 6453 0027 3E       		.uleb128 0x3e
 6454 0028 0B       		.uleb128 0xb
 6455 0029 00       		.byte	0x0
 6456 002a 00       		.byte	0x0
 6457 002b 04       		.uleb128 0x4
 6458 002c 16       		.uleb128 0x16
 6459 002d 00       		.byte	0x0
 6460 002e 03       		.uleb128 0x3
 6461 002f 0E       		.uleb128 0xe
 6462 0030 3A       		.uleb128 0x3a
 6463 0031 0B       		.uleb128 0xb
 6464 0032 3B       		.uleb128 0x3b
 6465 0033 0B       		.uleb128 0xb
 6466 0034 49       		.uleb128 0x49
 6467 0035 13       		.uleb128 0x13
 6468 0036 00       		.byte	0x0
 6469 0037 00       		.byte	0x0
 6470 0038 05       		.uleb128 0x5
 6471 0039 24       		.uleb128 0x24
 6472 003a 00       		.byte	0x0
 6473 003b 03       		.uleb128 0x3
 6474 003c 08       		.uleb128 0x8
 6475 003d 0B       		.uleb128 0xb
 6476 003e 0B       		.uleb128 0xb
 6477 003f 3E       		.uleb128 0x3e
 6478 0040 0B       		.uleb128 0xb
 6479 0041 00       		.byte	0x0
 6480 0042 00       		.byte	0x0
 6481 0043 06       		.uleb128 0x6
 6482 0044 0F       		.uleb128 0xf
 6483 0045 00       		.byte	0x0
 6484 0046 0B       		.uleb128 0xb
 6485 0047 0B       		.uleb128 0xb
 6486 0048 49       		.uleb128 0x49
 6487 0049 13       		.uleb128 0x13
 6488 004a 00       		.byte	0x0
 6489 004b 00       		.byte	0x0
 6490 004c 07       		.uleb128 0x7
ARM GAS  /cygdrive/c/DOCUME~1/mkwapisz/LOCALS~1/Temp/ccwCXJbO.s 			page 141


 6491 004d 13       		.uleb128 0x13
 6492 004e 01       		.byte	0x1
 6493 004f 01       		.uleb128 0x1
 6494 0050 13       		.uleb128 0x13
 6495 0051 0B       		.uleb128 0xb
 6496 0052 0B       		.uleb128 0xb
 6497 0053 3A       		.uleb128 0x3a
 6498 0054 0B       		.uleb128 0xb
 6499 0055 3B       		.uleb128 0x3b
 6500 0056 0B       		.uleb128 0xb
 6501 0057 00       		.byte	0x0
 6502 0058 00       		.byte	0x0
 6503 0059 08       		.uleb128 0x8
 6504 005a 0D       		.uleb128 0xd
 6505 005b 00       		.byte	0x0
 6506 005c 03       		.uleb128 0x3
 6507 005d 0E       		.uleb128 0xe
 6508 005e 3A       		.uleb128 0x3a
 6509 005f 0B       		.uleb128 0xb
 6510 0060 3B       		.uleb128 0x3b
 6511 0061 0B       		.uleb128 0xb
 6512 0062 49       		.uleb128 0x49
 6513 0063 13       		.uleb128 0x13
 6514 0064 38       		.uleb128 0x38
 6515 0065 0A       		.uleb128 0xa
 6516 0066 00       		.byte	0x0
 6517 0067 00       		.byte	0x0
 6518 0068 09       		.uleb128 0x9
 6519 0069 01       		.uleb128 0x1
 6520 006a 01       		.byte	0x1
 6521 006b 01       		.uleb128 0x1
 6522 006c 13       		.uleb128 0x13
 6523 006d 49       		.uleb128 0x49
 6524 006e 13       		.uleb128 0x13
 6525 006f 00       		.byte	0x0
 6526 0070 00       		.byte	0x0
 6527 0071 0A       		.uleb128 0xa
 6528 0072 21       		.uleb128 0x21
 6529 0073 00       		.byte	0x0
 6530 0074 49       		.uleb128 0x49
 6531 0075 13       		.uleb128 0x13
 6532 0076 2F       		.uleb128 0x2f
 6533 0077 0B       		.uleb128 0xb
 6534 0078 00       		.byte	0x0
 6535 0079 00       		.byte	0x0
 6536 007a 0B       		.uleb128 0xb
 6537 007b 13       		.uleb128 0x13
 6538 007c 01       		.byte	0x1
 6539 007d 01       		.uleb128 0x1
 6540 007e 13       		.uleb128 0x13
 6541 007f 03       		.uleb128 0x3
 6542 0080 0E       		.uleb128 0xe
 6543 0081 0B       		.uleb128 0xb
 6544 0082 0B       		.uleb128 0xb
 6545 0083 3A       		.uleb128 0x3a
 6546 0084 0B       		.uleb128 0xb
 6547 0085 3B       		.uleb128 0x3b
ARM GAS  /cygdrive/c/DOCUME~1/mkwapisz/LOCALS~1/Temp/ccwCXJbO.s 			page 142


 6548 0086 0B       		.uleb128 0xb
 6549 0087 00       		.byte	0x0
 6550 0088 00       		.byte	0x0
 6551 0089 0C       		.uleb128 0xc
 6552 008a 0D       		.uleb128 0xd
 6553 008b 00       		.byte	0x0
 6554 008c 03       		.uleb128 0x3
 6555 008d 08       		.uleb128 0x8
 6556 008e 3A       		.uleb128 0x3a
 6557 008f 0B       		.uleb128 0xb
 6558 0090 3B       		.uleb128 0x3b
 6559 0091 0B       		.uleb128 0xb
 6560 0092 49       		.uleb128 0x49
 6561 0093 13       		.uleb128 0x13
 6562 0094 38       		.uleb128 0x38
 6563 0095 0A       		.uleb128 0xa
 6564 0096 00       		.byte	0x0
 6565 0097 00       		.byte	0x0
 6566 0098 0D       		.uleb128 0xd
 6567 0099 2E       		.uleb128 0x2e
 6568 009a 01       		.byte	0x1
 6569 009b 01       		.uleb128 0x1
 6570 009c 13       		.uleb128 0x13
 6571 009d 03       		.uleb128 0x3
 6572 009e 0E       		.uleb128 0xe
 6573 009f 3A       		.uleb128 0x3a
 6574 00a0 0B       		.uleb128 0xb
 6575 00a1 3B       		.uleb128 0x3b
 6576 00a2 05       		.uleb128 0x5
 6577 00a3 27       		.uleb128 0x27
 6578 00a4 0C       		.uleb128 0xc
 6579 00a5 11       		.uleb128 0x11
 6580 00a6 01       		.uleb128 0x1
 6581 00a7 12       		.uleb128 0x12
 6582 00a8 01       		.uleb128 0x1
 6583 00a9 40       		.uleb128 0x40
 6584 00aa 0A       		.uleb128 0xa
 6585 00ab 00       		.byte	0x0
 6586 00ac 00       		.byte	0x0
 6587 00ad 0E       		.uleb128 0xe
 6588 00ae 05       		.uleb128 0x5
 6589 00af 00       		.byte	0x0
 6590 00b0 03       		.uleb128 0x3
 6591 00b1 0E       		.uleb128 0xe
 6592 00b2 3A       		.uleb128 0x3a
 6593 00b3 0B       		.uleb128 0xb
 6594 00b4 3B       		.uleb128 0x3b
 6595 00b5 05       		.uleb128 0x5
 6596 00b6 49       		.uleb128 0x49
 6597 00b7 13       		.uleb128 0x13
 6598 00b8 02       		.uleb128 0x2
 6599 00b9 0A       		.uleb128 0xa
 6600 00ba 00       		.byte	0x0
 6601 00bb 00       		.byte	0x0
 6602 00bc 0F       		.uleb128 0xf
 6603 00bd 05       		.uleb128 0x5
 6604 00be 00       		.byte	0x0
ARM GAS  /cygdrive/c/DOCUME~1/mkwapisz/LOCALS~1/Temp/ccwCXJbO.s 			page 143


 6605 00bf 03       		.uleb128 0x3
 6606 00c0 0E       		.uleb128 0xe
 6607 00c1 3A       		.uleb128 0x3a
 6608 00c2 0B       		.uleb128 0xb
 6609 00c3 3B       		.uleb128 0x3b
 6610 00c4 05       		.uleb128 0x5
 6611 00c5 49       		.uleb128 0x49
 6612 00c6 13       		.uleb128 0x13
 6613 00c7 02       		.uleb128 0x2
 6614 00c8 06       		.uleb128 0x6
 6615 00c9 00       		.byte	0x0
 6616 00ca 00       		.byte	0x0
 6617 00cb 10       		.uleb128 0x10
 6618 00cc 34       		.uleb128 0x34
 6619 00cd 00       		.byte	0x0
 6620 00ce 03       		.uleb128 0x3
 6621 00cf 0E       		.uleb128 0xe
 6622 00d0 3A       		.uleb128 0x3a
 6623 00d1 0B       		.uleb128 0xb
 6624 00d2 3B       		.uleb128 0x3b
 6625 00d3 05       		.uleb128 0x5
 6626 00d4 49       		.uleb128 0x49
 6627 00d5 13       		.uleb128 0x13
 6628 00d6 02       		.uleb128 0x2
 6629 00d7 0A       		.uleb128 0xa
 6630 00d8 00       		.byte	0x0
 6631 00d9 00       		.byte	0x0
 6632 00da 11       		.uleb128 0x11
 6633 00db 2E       		.uleb128 0x2e
 6634 00dc 01       		.byte	0x1
 6635 00dd 01       		.uleb128 0x1
 6636 00de 13       		.uleb128 0x13
 6637 00df 03       		.uleb128 0x3
 6638 00e0 0E       		.uleb128 0xe
 6639 00e1 3A       		.uleb128 0x3a
 6640 00e2 0B       		.uleb128 0xb
 6641 00e3 3B       		.uleb128 0x3b
 6642 00e4 05       		.uleb128 0x5
 6643 00e5 27       		.uleb128 0x27
 6644 00e6 0C       		.uleb128 0xc
 6645 00e7 49       		.uleb128 0x49
 6646 00e8 13       		.uleb128 0x13
 6647 00e9 11       		.uleb128 0x11
 6648 00ea 01       		.uleb128 0x1
 6649 00eb 12       		.uleb128 0x12
 6650 00ec 01       		.uleb128 0x1
 6651 00ed 40       		.uleb128 0x40
 6652 00ee 06       		.uleb128 0x6
 6653 00ef 00       		.byte	0x0
 6654 00f0 00       		.byte	0x0
 6655 00f1 12       		.uleb128 0x12
 6656 00f2 34       		.uleb128 0x34
 6657 00f3 00       		.byte	0x0
 6658 00f4 03       		.uleb128 0x3
 6659 00f5 0E       		.uleb128 0xe
 6660 00f6 3A       		.uleb128 0x3a
 6661 00f7 0B       		.uleb128 0xb
ARM GAS  /cygdrive/c/DOCUME~1/mkwapisz/LOCALS~1/Temp/ccwCXJbO.s 			page 144


 6662 00f8 3B       		.uleb128 0x3b
 6663 00f9 05       		.uleb128 0x5
 6664 00fa 49       		.uleb128 0x49
 6665 00fb 13       		.uleb128 0x13
 6666 00fc 02       		.uleb128 0x2
 6667 00fd 06       		.uleb128 0x6
 6668 00fe 00       		.byte	0x0
 6669 00ff 00       		.byte	0x0
 6670 0100 13       		.uleb128 0x13
 6671 0101 2E       		.uleb128 0x2e
 6672 0102 01       		.byte	0x1
 6673 0103 01       		.uleb128 0x1
 6674 0104 13       		.uleb128 0x13
 6675 0105 03       		.uleb128 0x3
 6676 0106 0E       		.uleb128 0xe
 6677 0107 3A       		.uleb128 0x3a
 6678 0108 0B       		.uleb128 0xb
 6679 0109 3B       		.uleb128 0x3b
 6680 010a 0B       		.uleb128 0xb
 6681 010b 27       		.uleb128 0x27
 6682 010c 0C       		.uleb128 0xc
 6683 010d 11       		.uleb128 0x11
 6684 010e 01       		.uleb128 0x1
 6685 010f 12       		.uleb128 0x12
 6686 0110 01       		.uleb128 0x1
 6687 0111 40       		.uleb128 0x40
 6688 0112 06       		.uleb128 0x6
 6689 0113 00       		.byte	0x0
 6690 0114 00       		.byte	0x0
 6691 0115 14       		.uleb128 0x14
 6692 0116 05       		.uleb128 0x5
 6693 0117 00       		.byte	0x0
 6694 0118 03       		.uleb128 0x3
 6695 0119 0E       		.uleb128 0xe
 6696 011a 3A       		.uleb128 0x3a
 6697 011b 0B       		.uleb128 0xb
 6698 011c 3B       		.uleb128 0x3b
 6699 011d 0B       		.uleb128 0xb
 6700 011e 49       		.uleb128 0x49
 6701 011f 13       		.uleb128 0x13
 6702 0120 02       		.uleb128 0x2
 6703 0121 06       		.uleb128 0x6
 6704 0122 00       		.byte	0x0
 6705 0123 00       		.byte	0x0
 6706 0124 15       		.uleb128 0x15
 6707 0125 2E       		.uleb128 0x2e
 6708 0126 01       		.byte	0x1
 6709 0127 01       		.uleb128 0x1
 6710 0128 13       		.uleb128 0x13
 6711 0129 03       		.uleb128 0x3
 6712 012a 0E       		.uleb128 0xe
 6713 012b 3A       		.uleb128 0x3a
 6714 012c 0B       		.uleb128 0xb
 6715 012d 3B       		.uleb128 0x3b
 6716 012e 05       		.uleb128 0x5
 6717 012f 27       		.uleb128 0x27
 6718 0130 0C       		.uleb128 0xc
ARM GAS  /cygdrive/c/DOCUME~1/mkwapisz/LOCALS~1/Temp/ccwCXJbO.s 			page 145


 6719 0131 11       		.uleb128 0x11
 6720 0132 01       		.uleb128 0x1
 6721 0133 12       		.uleb128 0x12
 6722 0134 01       		.uleb128 0x1
 6723 0135 40       		.uleb128 0x40
 6724 0136 06       		.uleb128 0x6
 6725 0137 00       		.byte	0x0
 6726 0138 00       		.byte	0x0
 6727 0139 16       		.uleb128 0x16
 6728 013a 05       		.uleb128 0x5
 6729 013b 00       		.byte	0x0
 6730 013c 03       		.uleb128 0x3
 6731 013d 08       		.uleb128 0x8
 6732 013e 3A       		.uleb128 0x3a
 6733 013f 0B       		.uleb128 0xb
 6734 0140 3B       		.uleb128 0x3b
 6735 0141 05       		.uleb128 0x5
 6736 0142 49       		.uleb128 0x49
 6737 0143 13       		.uleb128 0x13
 6738 0144 02       		.uleb128 0x2
 6739 0145 06       		.uleb128 0x6
 6740 0146 00       		.byte	0x0
 6741 0147 00       		.byte	0x0
 6742 0148 17       		.uleb128 0x17
 6743 0149 34       		.uleb128 0x34
 6744 014a 00       		.byte	0x0
 6745 014b 03       		.uleb128 0x3
 6746 014c 08       		.uleb128 0x8
 6747 014d 3A       		.uleb128 0x3a
 6748 014e 0B       		.uleb128 0xb
 6749 014f 3B       		.uleb128 0x3b
 6750 0150 05       		.uleb128 0x5
 6751 0151 49       		.uleb128 0x49
 6752 0152 13       		.uleb128 0x13
 6753 0153 02       		.uleb128 0x2
 6754 0154 06       		.uleb128 0x6
 6755 0155 00       		.byte	0x0
 6756 0156 00       		.byte	0x0
 6757 0157 18       		.uleb128 0x18
 6758 0158 34       		.uleb128 0x34
 6759 0159 00       		.byte	0x0
 6760 015a 03       		.uleb128 0x3
 6761 015b 0E       		.uleb128 0xe
 6762 015c 3A       		.uleb128 0x3a
 6763 015d 0B       		.uleb128 0xb
 6764 015e 3B       		.uleb128 0x3b
 6765 015f 0B       		.uleb128 0xb
 6766 0160 49       		.uleb128 0x49
 6767 0161 13       		.uleb128 0x13
 6768 0162 02       		.uleb128 0x2
 6769 0163 0A       		.uleb128 0xa
 6770 0164 00       		.byte	0x0
 6771 0165 00       		.byte	0x0
 6772 0166 19       		.uleb128 0x19
 6773 0167 34       		.uleb128 0x34
 6774 0168 00       		.byte	0x0
 6775 0169 03       		.uleb128 0x3
ARM GAS  /cygdrive/c/DOCUME~1/mkwapisz/LOCALS~1/Temp/ccwCXJbO.s 			page 146


 6776 016a 08       		.uleb128 0x8
 6777 016b 3A       		.uleb128 0x3a
 6778 016c 0B       		.uleb128 0xb
 6779 016d 3B       		.uleb128 0x3b
 6780 016e 05       		.uleb128 0x5
 6781 016f 49       		.uleb128 0x49
 6782 0170 13       		.uleb128 0x13
 6783 0171 02       		.uleb128 0x2
 6784 0172 0A       		.uleb128 0xa
 6785 0173 00       		.byte	0x0
 6786 0174 00       		.byte	0x0
 6787 0175 1A       		.uleb128 0x1a
 6788 0176 0B       		.uleb128 0xb
 6789 0177 01       		.byte	0x1
 6790 0178 11       		.uleb128 0x11
 6791 0179 01       		.uleb128 0x1
 6792 017a 12       		.uleb128 0x12
 6793 017b 01       		.uleb128 0x1
 6794 017c 00       		.byte	0x0
 6795 017d 00       		.byte	0x0
 6796 017e 1B       		.uleb128 0x1b
 6797 017f 34       		.uleb128 0x34
 6798 0180 00       		.byte	0x0
 6799 0181 03       		.uleb128 0x3
 6800 0182 0E       		.uleb128 0xe
 6801 0183 3A       		.uleb128 0x3a
 6802 0184 0B       		.uleb128 0xb
 6803 0185 3B       		.uleb128 0x3b
 6804 0186 05       		.uleb128 0x5
 6805 0187 49       		.uleb128 0x49
 6806 0188 13       		.uleb128 0x13
 6807 0189 00       		.byte	0x0
 6808 018a 00       		.byte	0x0
 6809 018b 1C       		.uleb128 0x1c
 6810 018c 35       		.uleb128 0x35
 6811 018d 00       		.byte	0x0
 6812 018e 49       		.uleb128 0x49
 6813 018f 13       		.uleb128 0x13
 6814 0190 00       		.byte	0x0
 6815 0191 00       		.byte	0x0
 6816 0192 1D       		.uleb128 0x1d
 6817 0193 2E       		.uleb128 0x2e
 6818 0194 00       		.byte	0x0
 6819 0195 03       		.uleb128 0x3
 6820 0196 0E       		.uleb128 0xe
 6821 0197 3A       		.uleb128 0x3a
 6822 0198 0B       		.uleb128 0xb
 6823 0199 3B       		.uleb128 0x3b
 6824 019a 0B       		.uleb128 0xb
 6825 019b 27       		.uleb128 0x27
 6826 019c 0C       		.uleb128 0xc
 6827 019d 11       		.uleb128 0x11
 6828 019e 01       		.uleb128 0x1
 6829 019f 12       		.uleb128 0x12
 6830 01a0 01       		.uleb128 0x1
 6831 01a1 40       		.uleb128 0x40
 6832 01a2 06       		.uleb128 0x6
ARM GAS  /cygdrive/c/DOCUME~1/mkwapisz/LOCALS~1/Temp/ccwCXJbO.s 			page 147


 6833 01a3 00       		.byte	0x0
 6834 01a4 00       		.byte	0x0
 6835 01a5 1E       		.uleb128 0x1e
 6836 01a6 2E       		.uleb128 0x2e
 6837 01a7 01       		.byte	0x1
 6838 01a8 01       		.uleb128 0x1
 6839 01a9 13       		.uleb128 0x13
 6840 01aa 03       		.uleb128 0x3
 6841 01ab 0E       		.uleb128 0xe
 6842 01ac 3A       		.uleb128 0x3a
 6843 01ad 0B       		.uleb128 0xb
 6844 01ae 3B       		.uleb128 0x3b
 6845 01af 05       		.uleb128 0x5
 6846 01b0 27       		.uleb128 0x27
 6847 01b1 0C       		.uleb128 0xc
 6848 01b2 49       		.uleb128 0x49
 6849 01b3 13       		.uleb128 0x13
 6850 01b4 20       		.uleb128 0x20
 6851 01b5 0B       		.uleb128 0xb
 6852 01b6 00       		.byte	0x0
 6853 01b7 00       		.byte	0x0
 6854 01b8 1F       		.uleb128 0x1f
 6855 01b9 0B       		.uleb128 0xb
 6856 01ba 01       		.byte	0x1
 6857 01bb 00       		.byte	0x0
 6858 01bc 00       		.byte	0x0
 6859 01bd 20       		.uleb128 0x20
 6860 01be 34       		.uleb128 0x34
 6861 01bf 00       		.byte	0x0
 6862 01c0 03       		.uleb128 0x3
 6863 01c1 08       		.uleb128 0x8
 6864 01c2 3A       		.uleb128 0x3a
 6865 01c3 0B       		.uleb128 0xb
 6866 01c4 3B       		.uleb128 0x3b
 6867 01c5 05       		.uleb128 0x5
 6868 01c6 49       		.uleb128 0x49
 6869 01c7 13       		.uleb128 0x13
 6870 01c8 00       		.byte	0x0
 6871 01c9 00       		.byte	0x0
 6872 01ca 21       		.uleb128 0x21
 6873 01cb 1D       		.uleb128 0x1d
 6874 01cc 00       		.byte	0x0
 6875 01cd 31       		.uleb128 0x31
 6876 01ce 13       		.uleb128 0x13
 6877 01cf 55       		.uleb128 0x55
 6878 01d0 06       		.uleb128 0x6
 6879 01d1 58       		.uleb128 0x58
 6880 01d2 0B       		.uleb128 0xb
 6881 01d3 59       		.uleb128 0x59
 6882 01d4 05       		.uleb128 0x5
 6883 01d5 00       		.byte	0x0
 6884 01d6 00       		.byte	0x0
 6885 01d7 22       		.uleb128 0x22
 6886 01d8 0B       		.uleb128 0xb
 6887 01d9 01       		.byte	0x1
 6888 01da 55       		.uleb128 0x55
 6889 01db 06       		.uleb128 0x6
ARM GAS  /cygdrive/c/DOCUME~1/mkwapisz/LOCALS~1/Temp/ccwCXJbO.s 			page 148


 6890 01dc 00       		.byte	0x0
 6891 01dd 00       		.byte	0x0
 6892 01de 23       		.uleb128 0x23
 6893 01df 34       		.uleb128 0x34
 6894 01e0 00       		.byte	0x0
 6895 01e1 31       		.uleb128 0x31
 6896 01e2 13       		.uleb128 0x13
 6897 01e3 02       		.uleb128 0x2
 6898 01e4 0A       		.uleb128 0xa
 6899 01e5 00       		.byte	0x0
 6900 01e6 00       		.byte	0x0
 6901 01e7 24       		.uleb128 0x24
 6902 01e8 34       		.uleb128 0x34
 6903 01e9 00       		.byte	0x0
 6904 01ea 31       		.uleb128 0x31
 6905 01eb 13       		.uleb128 0x13
 6906 01ec 02       		.uleb128 0x2
 6907 01ed 06       		.uleb128 0x6
 6908 01ee 00       		.byte	0x0
 6909 01ef 00       		.byte	0x0
 6910 01f0 25       		.uleb128 0x25
 6911 01f1 05       		.uleb128 0x5
 6912 01f2 00       		.byte	0x0
 6913 01f3 03       		.uleb128 0x3
 6914 01f4 0E       		.uleb128 0xe
 6915 01f5 3A       		.uleb128 0x3a
 6916 01f6 0B       		.uleb128 0xb
 6917 01f7 3B       		.uleb128 0x3b
 6918 01f8 05       		.uleb128 0x5
 6919 01f9 49       		.uleb128 0x49
 6920 01fa 13       		.uleb128 0x13
 6921 01fb 00       		.byte	0x0
 6922 01fc 00       		.byte	0x0
 6923 01fd 26       		.uleb128 0x26
 6924 01fe 2E       		.uleb128 0x2e
 6925 01ff 00       		.byte	0x0
 6926 0200 03       		.uleb128 0x3
 6927 0201 0E       		.uleb128 0xe
 6928 0202 3A       		.uleb128 0x3a
 6929 0203 0B       		.uleb128 0xb
 6930 0204 3B       		.uleb128 0x3b
 6931 0205 05       		.uleb128 0x5
 6932 0206 27       		.uleb128 0x27
 6933 0207 0C       		.uleb128 0xc
 6934 0208 20       		.uleb128 0x20
 6935 0209 0B       		.uleb128 0xb
 6936 020a 00       		.byte	0x0
 6937 020b 00       		.byte	0x0
 6938 020c 27       		.uleb128 0x27
 6939 020d 2E       		.uleb128 0x2e
 6940 020e 01       		.byte	0x1
 6941 020f 01       		.uleb128 0x1
 6942 0210 13       		.uleb128 0x13
 6943 0211 03       		.uleb128 0x3
 6944 0212 0E       		.uleb128 0xe
 6945 0213 3A       		.uleb128 0x3a
 6946 0214 0B       		.uleb128 0xb
ARM GAS  /cygdrive/c/DOCUME~1/mkwapisz/LOCALS~1/Temp/ccwCXJbO.s 			page 149


 6947 0215 3B       		.uleb128 0x3b
 6948 0216 05       		.uleb128 0x5
 6949 0217 27       		.uleb128 0x27
 6950 0218 0C       		.uleb128 0xc
 6951 0219 20       		.uleb128 0x20
 6952 021a 0B       		.uleb128 0xb
 6953 021b 00       		.byte	0x0
 6954 021c 00       		.byte	0x0
 6955 021d 28       		.uleb128 0x28
 6956 021e 05       		.uleb128 0x5
 6957 021f 00       		.byte	0x0
 6958 0220 03       		.uleb128 0x3
 6959 0221 08       		.uleb128 0x8
 6960 0222 3A       		.uleb128 0x3a
 6961 0223 0B       		.uleb128 0xb
 6962 0224 3B       		.uleb128 0x3b
 6963 0225 05       		.uleb128 0x5
 6964 0226 49       		.uleb128 0x49
 6965 0227 13       		.uleb128 0x13
 6966 0228 00       		.byte	0x0
 6967 0229 00       		.byte	0x0
 6968 022a 29       		.uleb128 0x29
 6969 022b 0B       		.uleb128 0xb
 6970 022c 01       		.byte	0x1
 6971 022d 01       		.uleb128 0x1
 6972 022e 13       		.uleb128 0x13
 6973 022f 00       		.byte	0x0
 6974 0230 00       		.byte	0x0
 6975 0231 2A       		.uleb128 0x2a
 6976 0232 2E       		.uleb128 0x2e
 6977 0233 01       		.byte	0x1
 6978 0234 01       		.uleb128 0x1
 6979 0235 13       		.uleb128 0x13
 6980 0236 3F       		.uleb128 0x3f
 6981 0237 0C       		.uleb128 0xc
 6982 0238 03       		.uleb128 0x3
 6983 0239 0E       		.uleb128 0xe
 6984 023a 3A       		.uleb128 0x3a
 6985 023b 0B       		.uleb128 0xb
 6986 023c 3B       		.uleb128 0x3b
 6987 023d 05       		.uleb128 0x5
 6988 023e 27       		.uleb128 0x27
 6989 023f 0C       		.uleb128 0xc
 6990 0240 11       		.uleb128 0x11
 6991 0241 01       		.uleb128 0x1
 6992 0242 12       		.uleb128 0x12
 6993 0243 01       		.uleb128 0x1
 6994 0244 40       		.uleb128 0x40
 6995 0245 06       		.uleb128 0x6
 6996 0246 00       		.byte	0x0
 6997 0247 00       		.byte	0x0
 6998 0248 2B       		.uleb128 0x2b
 6999 0249 1D       		.uleb128 0x1d
 7000 024a 01       		.byte	0x1
 7001 024b 01       		.uleb128 0x1
 7002 024c 13       		.uleb128 0x13
 7003 024d 31       		.uleb128 0x31
ARM GAS  /cygdrive/c/DOCUME~1/mkwapisz/LOCALS~1/Temp/ccwCXJbO.s 			page 150


 7004 024e 13       		.uleb128 0x13
 7005 024f 11       		.uleb128 0x11
 7006 0250 01       		.uleb128 0x1
 7007 0251 12       		.uleb128 0x12
 7008 0252 01       		.uleb128 0x1
 7009 0253 58       		.uleb128 0x58
 7010 0254 0B       		.uleb128 0xb
 7011 0255 59       		.uleb128 0x59
 7012 0256 05       		.uleb128 0x5
 7013 0257 00       		.byte	0x0
 7014 0258 00       		.byte	0x0
 7015 0259 2C       		.uleb128 0x2c
 7016 025a 05       		.uleb128 0x5
 7017 025b 00       		.byte	0x0
 7018 025c 31       		.uleb128 0x31
 7019 025d 13       		.uleb128 0x13
 7020 025e 00       		.byte	0x0
 7021 025f 00       		.byte	0x0
 7022 0260 2D       		.uleb128 0x2d
 7023 0261 0B       		.uleb128 0xb
 7024 0262 01       		.byte	0x1
 7025 0263 01       		.uleb128 0x1
 7026 0264 13       		.uleb128 0x13
 7027 0265 55       		.uleb128 0x55
 7028 0266 06       		.uleb128 0x6
 7029 0267 00       		.byte	0x0
 7030 0268 00       		.byte	0x0
 7031 0269 2E       		.uleb128 0x2e
 7032 026a 1D       		.uleb128 0x1d
 7033 026b 01       		.byte	0x1
 7034 026c 01       		.uleb128 0x1
 7035 026d 13       		.uleb128 0x13
 7036 026e 31       		.uleb128 0x31
 7037 026f 13       		.uleb128 0x13
 7038 0270 55       		.uleb128 0x55
 7039 0271 06       		.uleb128 0x6
 7040 0272 58       		.uleb128 0x58
 7041 0273 0B       		.uleb128 0xb
 7042 0274 59       		.uleb128 0x59
 7043 0275 05       		.uleb128 0x5
 7044 0276 00       		.byte	0x0
 7045 0277 00       		.byte	0x0
 7046 0278 2F       		.uleb128 0x2f
 7047 0279 05       		.uleb128 0x5
 7048 027a 00       		.byte	0x0
 7049 027b 31       		.uleb128 0x31
 7050 027c 13       		.uleb128 0x13
 7051 027d 02       		.uleb128 0x2
 7052 027e 06       		.uleb128 0x6
 7053 027f 00       		.byte	0x0
 7054 0280 00       		.byte	0x0
 7055 0281 30       		.uleb128 0x30
 7056 0282 1D       		.uleb128 0x1d
 7057 0283 01       		.byte	0x1
 7058 0284 31       		.uleb128 0x31
 7059 0285 13       		.uleb128 0x13
 7060 0286 11       		.uleb128 0x11
ARM GAS  /cygdrive/c/DOCUME~1/mkwapisz/LOCALS~1/Temp/ccwCXJbO.s 			page 151


 7061 0287 01       		.uleb128 0x1
 7062 0288 12       		.uleb128 0x12
 7063 0289 01       		.uleb128 0x1
 7064 028a 58       		.uleb128 0x58
 7065 028b 0B       		.uleb128 0xb
 7066 028c 59       		.uleb128 0x59
 7067 028d 05       		.uleb128 0x5
 7068 028e 00       		.byte	0x0
 7069 028f 00       		.byte	0x0
 7070 0290 31       		.uleb128 0x31
 7071 0291 34       		.uleb128 0x34
 7072 0292 00       		.byte	0x0
 7073 0293 31       		.uleb128 0x31
 7074 0294 13       		.uleb128 0x13
 7075 0295 00       		.byte	0x0
 7076 0296 00       		.byte	0x0
 7077 0297 32       		.uleb128 0x32
 7078 0298 26       		.uleb128 0x26
 7079 0299 00       		.byte	0x0
 7080 029a 49       		.uleb128 0x49
 7081 029b 13       		.uleb128 0x13
 7082 029c 00       		.byte	0x0
 7083 029d 00       		.byte	0x0
 7084 029e 33       		.uleb128 0x33
 7085 029f 34       		.uleb128 0x34
 7086 02a0 00       		.byte	0x0
 7087 02a1 03       		.uleb128 0x3
 7088 02a2 08       		.uleb128 0x8
 7089 02a3 3A       		.uleb128 0x3a
 7090 02a4 0B       		.uleb128 0xb
 7091 02a5 3B       		.uleb128 0x3b
 7092 02a6 0B       		.uleb128 0xb
 7093 02a7 49       		.uleb128 0x49
 7094 02a8 13       		.uleb128 0x13
 7095 02a9 3F       		.uleb128 0x3f
 7096 02aa 0C       		.uleb128 0xc
 7097 02ab 3C       		.uleb128 0x3c
 7098 02ac 0C       		.uleb128 0xc
 7099 02ad 00       		.byte	0x0
 7100 02ae 00       		.byte	0x0
 7101 02af 00       		.byte	0x0
 7102              		.section	.debug_pubnames,"",%progbits
 7103 0000 1B000000 		.4byte	0x1b
 7104 0004 0200     		.2byte	0x2
 7105 0006 00000000 		.4byte	.Ldebug_info0
 7106 000a 8E0A0000 		.4byte	0xa8e
 7107 000e E6070000 		.4byte	0x7e6
 7108 0012 706C6179 		.ascii	"playPong\000"
 7108      506F6E67 
 7108      00
 7109 001b 00000000 		.4byte	0x0
 7110              		.section	.debug_aranges,"",%progbits
 7111 0000 1C000000 		.4byte	0x1c
 7112 0004 0200     		.2byte	0x2
 7113 0006 00000000 		.4byte	.Ldebug_info0
 7114 000a 04       		.byte	0x4
 7115 000b 00       		.byte	0x0
ARM GAS  /cygdrive/c/DOCUME~1/mkwapisz/LOCALS~1/Temp/ccwCXJbO.s 			page 152


 7116 000c 0000     		.2byte	0x0
 7117 000e 0000     		.2byte	0x0
 7118 0010 00000000 		.4byte	.Ltext0
 7119 0014 30170000 		.4byte	.Letext0-.Ltext0
 7120 0018 00000000 		.4byte	0x0
 7121 001c 00000000 		.4byte	0x0
 7122              		.section	.debug_ranges,"",%progbits
 7123              	.Ldebug_ranges0:
 7124 0000 16070000 		.4byte	.LBB6-.Ltext0
 7125 0004 18070000 		.4byte	.LBE6-.Ltext0
 7126 0008 26070000 		.4byte	.LBB9-.Ltext0
 7127 000c 36080000 		.4byte	.LBE9-.Ltext0
 7128 0010 22070000 		.4byte	.LBB8-.Ltext0
 7129 0014 24070000 		.4byte	.LBE8-.Ltext0
 7130 0018 1C070000 		.4byte	.LBB7-.Ltext0
 7131 001c 1E070000 		.4byte	.LBE7-.Ltext0
 7132 0020 00000000 		.4byte	0x0
 7133 0024 00000000 		.4byte	0x0
 7134 0028 2A070000 		.4byte	.LBB10-.Ltext0
 7135 002c 10080000 		.4byte	.LBE10-.Ltext0
 7136 0030 1E080000 		.4byte	.LBB12-.Ltext0
 7137 0034 36080000 		.4byte	.LBE12-.Ltext0
 7138 0038 00000000 		.4byte	0x0
 7139 003c 00000000 		.4byte	0x0
 7140 0040 2A0A0000 		.4byte	.LBB26-.Ltext0
 7141 0044 6E0A0000 		.4byte	.LBE26-.Ltext0
 7142 0048 AC0B0000 		.4byte	.LBB31-.Ltext0
 7143 004c 260C0000 		.4byte	.LBE31-.Ltext0
 7144 0050 660B0000 		.4byte	.LBB30-.Ltext0
 7145 0054 8A0B0000 		.4byte	.LBE30-.Ltext0
 7146 0058 C40A0000 		.4byte	.LBB29-.Ltext0
 7147 005c 5C0B0000 		.4byte	.LBE29-.Ltext0
 7148 0060 AA0A0000 		.4byte	.LBB28-.Ltext0
 7149 0064 B20A0000 		.4byte	.LBE28-.Ltext0
 7150 0068 780A0000 		.4byte	.LBB27-.Ltext0
 7151 006c 9C0A0000 		.4byte	.LBE27-.Ltext0
 7152 0070 00000000 		.4byte	0x0
 7153 0074 00000000 		.4byte	0x0
 7154 0078 D80C0000 		.4byte	.LBB32-.Ltext0
 7155 007c E80E0000 		.4byte	.LBE32-.Ltext0
 7156 0080 D6160000 		.4byte	.LBB67-.Ltext0
 7157 0084 30170000 		.4byte	.LBE67-.Ltext0
 7158 0088 00000000 		.4byte	0x0
 7159 008c 00000000 		.4byte	0x0
 7160 0090 1A0D0000 		.4byte	.LBB33-.Ltext0
 7161 0094 1C0D0000 		.4byte	.LBE33-.Ltext0
 7162 0098 1E0D0000 		.4byte	.LBB35-.Ltext0
 7163 009c 4C0D0000 		.4byte	.LBE35-.Ltext0
 7164 00a0 00000000 		.4byte	0x0
 7165 00a4 00000000 		.4byte	0x0
 7166 00a8 500D0000 		.4byte	.LBB37-.Ltext0
 7167 00ac 540D0000 		.4byte	.LBE37-.Ltext0
 7168 00b0 4E0E0000 		.4byte	.LBB41-.Ltext0
 7169 00b4 6E0E0000 		.4byte	.LBE41-.Ltext0
 7170 00b8 560D0000 		.4byte	.LBB38-.Ltext0
 7171 00bc BC0D0000 		.4byte	.LBE38-.Ltext0
 7172 00c0 00000000 		.4byte	0x0
ARM GAS  /cygdrive/c/DOCUME~1/mkwapisz/LOCALS~1/Temp/ccwCXJbO.s 			page 153


 7173 00c4 00000000 		.4byte	0x0
 7174 00c8 5C0D0000 		.4byte	.LBB39-.Ltext0
 7175 00cc 840D0000 		.4byte	.LBE39-.Ltext0
 7176 00d0 4E0E0000 		.4byte	.LBB42-.Ltext0
 7177 00d4 6E0E0000 		.4byte	.LBE42-.Ltext0
 7178 00d8 940D0000 		.4byte	.LBB40-.Ltext0
 7179 00dc BC0D0000 		.4byte	.LBE40-.Ltext0
 7180 00e0 00000000 		.4byte	0x0
 7181 00e4 00000000 		.4byte	0x0
 7182 00e8 E60F0000 		.4byte	.LBB45-.Ltext0
 7183 00ec BC110000 		.4byte	.LBE45-.Ltext0
 7184 00f0 E4150000 		.4byte	.LBB66-.Ltext0
 7185 00f4 EC150000 		.4byte	.LBE66-.Ltext0
 7186 00f8 A6150000 		.4byte	.LBB65-.Ltext0
 7187 00fc BA150000 		.4byte	.LBE65-.Ltext0
 7188 0100 80150000 		.4byte	.LBB64-.Ltext0
 7189 0104 84150000 		.4byte	.LBE64-.Ltext0
 7190 0108 32140000 		.4byte	.LBB62-.Ltext0
 7191 010c 74150000 		.4byte	.LBE62-.Ltext0
 7192 0110 2E140000 		.4byte	.LBB60-.Ltext0
 7193 0114 30140000 		.4byte	.LBE60-.Ltext0
 7194 0118 14140000 		.4byte	.LBB58-.Ltext0
 7195 011c 18140000 		.4byte	.LBE58-.Ltext0
 7196 0120 0E140000 		.4byte	.LBB56-.Ltext0
 7197 0124 10140000 		.4byte	.LBE56-.Ltext0
 7198 0128 E8130000 		.4byte	.LBB54-.Ltext0
 7199 012c FA130000 		.4byte	.LBE54-.Ltext0
 7200 0130 E4130000 		.4byte	.LBB52-.Ltext0
 7201 0134 E6130000 		.4byte	.LBE52-.Ltext0
 7202 0138 E0130000 		.4byte	.LBB50-.Ltext0
 7203 013c E2130000 		.4byte	.LBE50-.Ltext0
 7204 0140 EC110000 		.4byte	.LBB48-.Ltext0
 7205 0144 B4130000 		.4byte	.LBE48-.Ltext0
 7206 0148 D6110000 		.4byte	.LBB47-.Ltext0
 7207 014c D8110000 		.4byte	.LBE47-.Ltext0
 7208 0150 00000000 		.4byte	0x0
 7209 0154 00000000 		.4byte	0x0
 7210 0158 EE120000 		.4byte	.LBB49-.Ltext0
 7211 015c B4130000 		.4byte	.LBE49-.Ltext0
 7212 0160 32140000 		.4byte	.LBB63-.Ltext0
 7213 0164 10150000 		.4byte	.LBE63-.Ltext0
 7214 0168 2E140000 		.4byte	.LBB61-.Ltext0
 7215 016c 30140000 		.4byte	.LBE61-.Ltext0
 7216 0170 14140000 		.4byte	.LBB59-.Ltext0
 7217 0174 18140000 		.4byte	.LBE59-.Ltext0
 7218 0178 0E140000 		.4byte	.LBB57-.Ltext0
 7219 017c 10140000 		.4byte	.LBE57-.Ltext0
 7220 0180 E8130000 		.4byte	.LBB55-.Ltext0
 7221 0184 FA130000 		.4byte	.LBE55-.Ltext0
 7222 0188 E4130000 		.4byte	.LBB53-.Ltext0
 7223 018c E6130000 		.4byte	.LBE53-.Ltext0
 7224 0190 E0130000 		.4byte	.LBB51-.Ltext0
 7225 0194 E2130000 		.4byte	.LBE51-.Ltext0
 7226 0198 00000000 		.4byte	0x0
 7227 019c 00000000 		.4byte	0x0
 7228              		.section	.debug_str,"MS",%progbits,1
 7229              	.LASF104:
ARM GAS  /cygdrive/c/DOCUME~1/mkwapisz/LOCALS~1/Temp/ccwCXJbO.s 			page 154


 7230 0000 72656D6F 		.ascii	"remoteClientKey\000"
 7230      7465436C 
 7230      69656E74 
 7230      4B657900 
 7231              	.LASF14:
 7232 0010 6C6F6E67 		.ascii	"long double\000"
 7232      20646F75 
 7232      626C6500 
 7233              	.LASF50:
 7234 001c 6465636F 		.ascii	"decodeFromDigits\000"
 7234      64654672 
 7234      6F6D4469 
 7234      67697473 
 7234      00
 7235              	.LASF4:
 7236 002d 7369676E 		.ascii	"signed char\000"
 7236      65642063 
 7236      68617200 
 7237              	.LASF99:
 7238 0039 62616C6C 		.ascii	"ball\000"
 7238      00
 7239              	.LASF33:
 7240 003e 74797065 		.ascii	"type\000"
 7240      00
 7241              	.LASF66:
 7242 0043 646F6E65 		.ascii	"done\000"
 7242      00
 7243              	.LASF37:
 7244 0048 5F506F6E 		.ascii	"_PongBall\000"
 7244      6742616C 
 7244      6C00
 7245              	.LASF51:
 7246 0052 7056616C 		.ascii	"pValue\000"
 7246      756500
 7247              	.LASF63:
 7248 0059 73656172 		.ascii	"searchServers\000"
 7248      63685365 
 7248      72766572 
 7248      7300
 7249              	.LASF11:
 7250 0067 6C6F6E67 		.ascii	"long long unsigned int\000"
 7250      206C6F6E 
 7250      6720756E 
 7250      7369676E 
 7250      65642069 
 7251              	.LASF91:
 7252 007e 616E676C 		.ascii	"angle\000"
 7252      6500
 7253              	.LASF28:
 7254 0084 73656C65 		.ascii	"selectedColor\000"
 7254      63746564 
 7254      436F6C6F 
 7254      7200
 7255              	.LASF65:
 7256 0092 72784368 		.ascii	"rxChar\000"
 7256      617200
 7257              	.LASF93:
ARM GAS  /cygdrive/c/DOCUME~1/mkwapisz/LOCALS~1/Temp/ccwCXJbO.s 			page 155


 7258 0099 67616D65 		.ascii	"gameOver\000"
 7258      4F766572 
 7258      00
 7259              	.LASF25:
 7260 00a2 626F7264 		.ascii	"borderColor\000"
 7260      6572436F 
 7260      6C6F7200 
 7261              	.LASF9:
 7262 00ae 6C6F6E67 		.ascii	"long long int\000"
 7262      206C6F6E 
 7262      6720696E 
 7262      7400
 7263              	.LASF6:
 7264 00bc 74426F6F 		.ascii	"tBool\000"
 7264      6C00
 7265              	.LASF84:
 7266 00c2 61637469 		.ascii	"activateServer\000"
 7266      76617465 
 7266      53657276 
 7266      657200
 7267              	.LASF32:
 7268 00d1 636F6C6F 		.ascii	"color\000"
 7268      7200
 7269              	.LASF90:
 7270 00d7 70657263 		.ascii	"percIntoPad\000"
 7270      496E746F 
 7270      50616400 
 7271              	.LASF8:
 7272 00e3 6C6F6E67 		.ascii	"long int\000"
 7272      20696E74 
 7272      00
 7273              	.LASF69:
 7274 00ec 72656376 		.ascii	"recvPos\000"
 7274      506F7300 
 7275              	.LASF95:
 7276 00f4 666F756E 		.ascii	"foundBtUnits\000"
 7276      64427455 
 7276      6E697473 
 7276      00
 7277              	.LASF81:
 7278 0101 636F6E6E 		.ascii	"connectToServer\000"
 7278      65637454 
 7278      6F536572 
 7278      76657200 
 7279              	.LASF18:
 7280 0111 794C656E 		.ascii	"yLen\000"
 7280      00
 7281              	.LASF53:
 7282 0116 72657375 		.ascii	"result\000"
 7282      6C7400
 7283              	.LASF12:
 7284 011d 646F7562 		.ascii	"double\000"
 7284      6C6500
 7285              	.LASF57:
 7286 0124 6D6F7665 		.ascii	"movePlayer\000"
 7286      506C6179 
 7286      657200
ARM GAS  /cygdrive/c/DOCUME~1/mkwapisz/LOCALS~1/Temp/ccwCXJbO.s 			page 156


 7287              	.LASF73:
 7288 012f 64697370 		.ascii	"displayMessage\000"
 7288      6C61794D 
 7288      65737361 
 7288      676500
 7289              	.LASF101:
 7290 013e 70536572 		.ascii	"pServingPlayer\000"
 7290      76696E67 
 7290      506C6179 
 7290      657200
 7291              	.LASF55:
 7292 014d 7061696E 		.ascii	"paintPlayer\000"
 7292      74506C61 
 7292      79657200 
 7293              	.LASF19:
 7294 0159 6E6F4F66 		.ascii	"noOfChoices\000"
 7294      43686F69 
 7294      63657300 
 7295              	.LASF83:
 7296 0165 7061696E 		.ascii	"paintGame\000"
 7296      7447616D 
 7296      6500
 7297              	.LASF27:
 7298 016f 63686F69 		.ascii	"choicesColor\000"
 7298      63657343 
 7298      6F6C6F72 
 7298      00
 7299              	.LASF36:
 7300 017c 5F506F6E 		.ascii	"_PongPlayer\000"
 7300      67506C61 
 7300      79657200 
 7301              	.LASF20:
 7302 0188 696E6974 		.ascii	"initialChoice\000"
 7302      69616C43 
 7302      686F6963 
 7302      6500
 7303              	.LASF58:
 7304 0196 64726177 		.ascii	"drawBtsFound\000"
 7304      42747346 
 7304      6F756E64 
 7304      00
 7305              	.LASF85:
 7306 01a3 63686563 		.ascii	"checkIfClinetConnected\000"
 7306      6B496643 
 7306      6C696E65 
 7306      74436F6E 
 7306      6E656374 
 7307              	.LASF3:
 7308 01ba 756E7369 		.ascii	"unsigned int\000"
 7308      676E6564 
 7308      20696E74 
 7308      00
 7309              	.LASF79:
 7310 01c7 62745365 		.ascii	"btSendAndRecvStatus\000"
 7310      6E64416E 
 7310      64526563 
 7310      76537461 
ARM GAS  /cygdrive/c/DOCUME~1/mkwapisz/LOCALS~1/Temp/ccwCXJbO.s 			page 157


 7310      74757300 
 7311              	.LASF43:
 7312 01db 61637469 		.ascii	"active\000"
 7312      766500
 7313              	.LASF22:
 7314 01e2 68656164 		.ascii	"headerTextXpos\000"
 7314      65725465 
 7314      78745870 
 7314      6F7300
 7315              	.LASF40:
 7316 01f1 7358506F 		.ascii	"sXPos\000"
 7316      7300
 7317              	.LASF7:
 7318 01f7 6C6F6E67 		.ascii	"long unsigned int\000"
 7318      20756E73 
 7318      69676E65 
 7318      6420696E 
 7318      7400
 7319              	.LASF77:
 7320 0209 73636F72 		.ascii	"score1\000"
 7320      653100
 7321              	.LASF96:
 7322 0210 67616D65 		.ascii	"gameType\000"
 7322      54797065 
 7322      00
 7323              	.LASF30:
 7324 0219 73697A65 		.ascii	"size\000"
 7324      00
 7325              	.LASF1:
 7326 021e 73686F72 		.ascii	"short unsigned int\000"
 7326      7420756E 
 7326      7369676E 
 7326      65642069 
 7326      6E7400
 7327              	.LASF39:
 7328 0231 79537065 		.ascii	"ySpeed\000"
 7328      656400
 7329              	.LASF76:
 7330 0238 68616E64 		.ascii	"handleComm\000"
 7330      6C65436F 
 7330      6D6D00
 7331              	.LASF2:
 7332 0243 74553332 		.ascii	"tU32\000"
 7332      00
 7333              	.LASF59:
 7334 0248 63757273 		.ascii	"cursorPos\000"
 7334      6F72506F 
 7334      7300
 7335              	.LASF89:
 7336 0252 6D696450 		.ascii	"midPos\000"
 7336      6F7300
 7337              	.LASF102:
 7338 0259 73657276 		.ascii	"serving\000"
 7338      696E6700 
 7339              	.LASF23:
 7340 0261 7043686F 		.ascii	"pChoice\000"
 7340      69636500 
ARM GAS  /cygdrive/c/DOCUME~1/mkwapisz/LOCALS~1/Temp/ccwCXJbO.s 			page 158


 7341              	.LASF24:
 7342 0269 6267436F 		.ascii	"bgColor\000"
 7342      6C6F7200 
 7343              	.LASF71:
 7344 0271 666F756E 		.ascii	"foundBt\000"
 7344      64427400 
 7345              	.LASF46:
 7346 0279 74427452 		.ascii	"tBtRecord\000"
 7346      65636F72 
 7346      6400
 7347              	.LASF70:
 7348 0283 72656376 		.ascii	"recvBuf\000"
 7348      42756600 
 7349              	.LASF87:
 7350 028b 70446566 		.ascii	"pDefending\000"
 7350      656E6469 
 7350      6E6700
 7351              	.LASF26:
 7352 0296 68656164 		.ascii	"headerColor\000"
 7352      6572436F 
 7352      6C6F7200 
 7353              	.LASF82:
 7354 02a2 636F6E6E 		.ascii	"connected\000"
 7354      65637465 
 7354      6400
 7355              	.LASF80:
 7356 02ac 666F7263 		.ascii	"force\000"
 7356      6500
 7357              	.LASF61:
 7358 02b2 73636F72 		.ascii	"scoreStr\000"
 7358      65537472 
 7358      00
 7359              	.LASF13:
 7360 02bb 666C6F61 		.ascii	"float\000"
 7360      7400
 7361              	.LASF44:
 7362 02c1 62744164 		.ascii	"btAddress\000"
 7362      64726573 
 7362      7300
 7363              	.LASF41:
 7364 02cb 7359506F 		.ascii	"sYPos\000"
 7364      7300
 7365              	.LASF56:
 7366 02d1 70506C61 		.ascii	"pPlayer\000"
 7366      79657200 
 7367              	.LASF92:
 7368 02d9 61627353 		.ascii	"absSpeed\000"
 7368      70656564 
 7368      00
 7369              	.LASF72:
 7370 02e2 70537472 		.ascii	"pStr\000"
 7370      00
 7371              	.LASF29:
 7372 02e7 744D656E 		.ascii	"tMenu\000"
 7372      7500
 7373              	.LASF88:
 7374 02ed 7269736B 		.ascii	"riskForHit\000"
ARM GAS  /cygdrive/c/DOCUME~1/mkwapisz/LOCALS~1/Temp/ccwCXJbO.s 			page 159


 7374      466F7248 
 7374      697400
 7375              	.LASF86:
 7376 02f8 6D6F7665 		.ascii	"moveBall\000"
 7376      42616C6C 
 7376      00
 7377              	.LASF0:
 7378 0301 756E7369 		.ascii	"unsigned char\000"
 7378      676E6564 
 7378      20636861 
 7378      7200
 7379              	.LASF105:
 7380 030f 474E5520 		.ascii	"GNU C 4.1.1\000"
 7380      4320342E 
 7380      312E3100 
 7381              	.LASF94:
 7382 031b 6D656E75 		.ascii	"menu\000"
 7382      00
 7383              	.LASF5:
 7384 0320 73686F72 		.ascii	"short int\000"
 7384      7420696E 
 7384      7400
 7385              	.LASF97:
 7386 032a 706C6179 		.ascii	"player1\000"
 7386      65723100 
 7387              	.LASF98:
 7388 0332 706C6179 		.ascii	"player2\000"
 7388      65723200 
 7389              	.LASF17:
 7390 033a 784C656E 		.ascii	"xLen\000"
 7390      00
 7391              	.LASF60:
 7392 033f 7061696E 		.ascii	"paintScore\000"
 7392      7453636F 
 7392      726500
 7393              	.LASF67:
 7394 034a 616E794B 		.ascii	"anyKey\000"
 7394      657900
 7395              	.LASF48:
 7396 0351 76616C75 		.ascii	"value\000"
 7396      6500
 7397              	.LASF54:
 7398 0357 76616C69 		.ascii	"valid\000"
 7398      6400
 7399              	.LASF108:
 7400 035d 706C6179 		.ascii	"playPong\000"
 7400      506F6E67 
 7400      00
 7401              	.LASF10:
 7402 0366 63686172 		.ascii	"char\000"
 7402      00
 7403              	.LASF78:
 7404 036b 73636F72 		.ascii	"score2\000"
 7404      653200
 7405              	.LASF74:
 7406 0372 704D6573 		.ascii	"pMessage\000"
 7406      73616765 
ARM GAS  /cygdrive/c/DOCUME~1/mkwapisz/LOCALS~1/Temp/ccwCXJbO.s 			page 160


 7406      00
 7407              	.LASF103:
 7408 037b 6C617374 		.ascii	"lastStatus\000"
 7408      53746174 
 7408      757300
 7409              	.LASF106:
 7410 0386 706F6E67 		.ascii	"pong.c\000"
 7410      2E6300
 7411              	.LASF68:
 7412 038d 74696D65 		.ascii	"timeStamp\000"
 7412      5374616D 
 7412      7000
 7413              	.LASF16:
 7414 0397 79506F73 		.ascii	"yPos\000"
 7414      00
 7415              	.LASF100:
 7416 039c 70416374 		.ascii	"pActivePlayer\000"
 7416      69766550 
 7416      6C617965 
 7416      7200
 7417              	.LASF35:
 7418 03aa 74506F6E 		.ascii	"tPongPlayer\000"
 7418      67506C61 
 7418      79657200 
 7419              	.LASF47:
 7420 03b6 70427566 		.ascii	"pBuf\000"
 7420      00
 7421              	.LASF34:
 7422 03bb 6C617374 		.ascii	"lastMove\000"
 7422      4D6F7665 
 7422      00
 7423              	.LASF107:
 7424 03c4 2F637967 		.ascii	"/cygdrive/c/Embedded/workspace/lcd_src_v1.9\000"
 7424      64726976 
 7424      652F632F 
 7424      456D6265 
 7424      64646564 
 7425              	.LASF49:
 7426 03f0 636F6E76 		.ascii	"convertToDigits\000"
 7426      65727454 
 7426      6F446967 
 7426      69747300 
 7427              	.LASF64:
 7428 0400 70427441 		.ascii	"pBtAddr\000"
 7428      64647200 
 7429              	.LASF75:
 7430 0408 73706565 		.ascii	"speed\000"
 7430      6400
 7431              	.LASF15:
 7432 040e 78506F73 		.ascii	"xPos\000"
 7432      00
 7433              	.LASF62:
 7434 0413 73746172 		.ascii	"startNewServ\000"
 7434      744E6577 
 7434      53657276 
 7434      00
 7435              	.LASF52:
ARM GAS  /cygdrive/c/DOCUME~1/mkwapisz/LOCALS~1/Temp/ccwCXJbO.s 			page 161


 7436 0420 746F4865 		.ascii	"toHex\000"
 7436      7800
 7437              	.LASF38:
 7438 0426 78537065 		.ascii	"xSpeed\000"
 7438      656400
 7439              	.LASF45:
 7440 042d 62744E61 		.ascii	"btName\000"
 7440      6D6500
 7441              	.LASF42:
 7442 0434 74506F6E 		.ascii	"tPongBall\000"
 7442      6742616C 
 7442      6C00
 7443              	.LASF31:
 7444 043e 73636F72 		.ascii	"score\000"
 7444      6500
 7445              	.LASF21:
 7446 0444 70486561 		.ascii	"pHeaderText\000"
 7446      64657254 
 7446      65787400 
 7447              		.ident	"GCC: (GNU) 4.1.1"
ARM GAS  /cygdrive/c/DOCUME~1/mkwapisz/LOCALS~1/Temp/ccwCXJbO.s 			page 162


DEFINED SYMBOLS
                            *ABS*:00000000 pong.c
/cygdrive/c/DOCUME~1/mkwapisz/LOCALS~1/Temp/ccwCXJbO.s:1      .text:00000000 $t
/cygdrive/c/DOCUME~1/mkwapisz/LOCALS~1/Temp/ccwCXJbO.s:15     .text:00000000 convertToDigits
/cygdrive/c/DOCUME~1/mkwapisz/LOCALS~1/Temp/ccwCXJbO.s:45     .text:00000014 $d
/cygdrive/c/DOCUME~1/mkwapisz/LOCALS~1/Temp/ccwCXJbO.s:3974   .rodata:00000000 toHex.3480
/cygdrive/c/DOCUME~1/mkwapisz/LOCALS~1/Temp/ccwCXJbO.s:49     .text:00000018 $t
/cygdrive/c/DOCUME~1/mkwapisz/LOCALS~1/Temp/ccwCXJbO.s:52     .text:00000018 decodeFromDigits
/cygdrive/c/DOCUME~1/mkwapisz/LOCALS~1/Temp/ccwCXJbO.s:148    .text:00000080 paintPlayer
/cygdrive/c/DOCUME~1/mkwapisz/LOCALS~1/Temp/ccwCXJbO.s:180    .text:000000a0 movePlayer
/cygdrive/c/DOCUME~1/mkwapisz/LOCALS~1/Temp/ccwCXJbO.s:316    .text:00000158 $d
/cygdrive/c/DOCUME~1/mkwapisz/LOCALS~1/Temp/ccwCXJbO.s:3995   .bss:000000ac gameType
/cygdrive/c/DOCUME~1/mkwapisz/LOCALS~1/Temp/ccwCXJbO.s:3933   .data:00000020 pActivePlayer
/cygdrive/c/DOCUME~1/mkwapisz/LOCALS~1/Temp/ccwCXJbO.s:3922   .data:00000010 player2
/cygdrive/c/DOCUME~1/mkwapisz/LOCALS~1/Temp/ccwCXJbO.s:3911   .data:00000000 player1
/cygdrive/c/DOCUME~1/mkwapisz/LOCALS~1/Temp/ccwCXJbO.s:329    .text:0000016c $t
/cygdrive/c/DOCUME~1/mkwapisz/LOCALS~1/Temp/ccwCXJbO.s:332    .text:0000016c drawBtsFound
/cygdrive/c/DOCUME~1/mkwapisz/LOCALS~1/Temp/ccwCXJbO.s:411    .text:000001cc $d
/cygdrive/c/DOCUME~1/mkwapisz/LOCALS~1/Temp/ccwCXJbO.s:3993   .bss:0000000c foundBtUnits
/cygdrive/c/DOCUME~1/mkwapisz/LOCALS~1/Temp/ccwCXJbO.s:423    .text:000001d4 $t
/cygdrive/c/DOCUME~1/mkwapisz/LOCALS~1/Temp/ccwCXJbO.s:426    .text:000001d4 paintScore
/cygdrive/c/DOCUME~1/mkwapisz/LOCALS~1/Temp/ccwCXJbO.s:533    .text:00000290 $d
/cygdrive/c/DOCUME~1/mkwapisz/LOCALS~1/Temp/ccwCXJbO.s:539    .text:0000029c $t
/cygdrive/c/DOCUME~1/mkwapisz/LOCALS~1/Temp/ccwCXJbO.s:542    .text:0000029c startNewServ
/cygdrive/c/DOCUME~1/mkwapisz/LOCALS~1/Temp/ccwCXJbO.s:597    .text:000002d8 $d
/cygdrive/c/DOCUME~1/mkwapisz/LOCALS~1/Temp/ccwCXJbO.s:3942   .data:00000024 pServingPlayer
/cygdrive/c/DOCUME~1/mkwapisz/LOCALS~1/Temp/ccwCXJbO.s:3947   .data:00000028 ball
/cygdrive/c/DOCUME~1/mkwapisz/LOCALS~1/Temp/ccwCXJbO.s:3962   .data:0000005c serving
/cygdrive/c/DOCUME~1/mkwapisz/LOCALS~1/Temp/ccwCXJbO.s:685    .text:00000304 $t
/cygdrive/c/DOCUME~1/mkwapisz/LOCALS~1/Temp/ccwCXJbO.s:688    .text:00000304 searchServers
/cygdrive/c/DOCUME~1/mkwapisz/LOCALS~1/Temp/ccwCXJbO.s:1220   .text:0000061c $d
/cygdrive/c/DOCUME~1/mkwapisz/LOCALS~1/Temp/ccwCXJbO.s:1251   .text:0000068c $t
/cygdrive/c/DOCUME~1/mkwapisz/LOCALS~1/Temp/ccwCXJbO.s:1275   .text:000006a8 $d
/cygdrive/c/DOCUME~1/mkwapisz/LOCALS~1/Temp/ccwCXJbO.s:1279   .text:000006ac $t
/cygdrive/c/DOCUME~1/mkwapisz/LOCALS~1/Temp/ccwCXJbO.s:1282   .text:000006ac displayMessage
/cygdrive/c/DOCUME~1/mkwapisz/LOCALS~1/Temp/ccwCXJbO.s:1324   .text:000006d0 paintGame
/cygdrive/c/DOCUME~1/mkwapisz/LOCALS~1/Temp/ccwCXJbO.s:1361   .text:00000708 $d
/cygdrive/c/DOCUME~1/mkwapisz/LOCALS~1/Temp/ccwCXJbO.s:1374   .text:00000710 $t
/cygdrive/c/DOCUME~1/mkwapisz/LOCALS~1/Temp/ccwCXJbO.s:1377   .text:00000710 btSendAndRecvStatus
/cygdrive/c/DOCUME~1/mkwapisz/LOCALS~1/Temp/ccwCXJbO.s:1697   .text:000008ec $d
/cygdrive/c/DOCUME~1/mkwapisz/LOCALS~1/Temp/ccwCXJbO.s:3999   .bss:000000ae recvBuf
/cygdrive/c/DOCUME~1/mkwapisz/LOCALS~1/Temp/ccwCXJbO.s:3997   .bss:000000ad recvPos
/cygdrive/c/DOCUME~1/mkwapisz/LOCALS~1/Temp/ccwCXJbO.s:3936   .bss:00000000 remoteClientKey
/cygdrive/c/DOCUME~1/mkwapisz/LOCALS~1/Temp/ccwCXJbO.s:3969   .bss:00000008 lastStatus
/cygdrive/c/DOCUME~1/mkwapisz/LOCALS~1/Temp/ccwCXJbO.s:1803   .text:00000924 playPong
/cygdrive/c/DOCUME~1/mkwapisz/LOCALS~1/Temp/ccwCXJbO.s:1800   .text:00000924 $t
/cygdrive/c/DOCUME~1/mkwapisz/LOCALS~1/Temp/ccwCXJbO.s:2344   .text:00000c54 $d
/cygdrive/c/DOCUME~1/mkwapisz/LOCALS~1/Temp/ccwCXJbO.s:2381   .text:00000cd8 $t
/cygdrive/c/DOCUME~1/mkwapisz/LOCALS~1/Temp/ccwCXJbO.s:2987   .text:0000105c $d
/cygdrive/c/DOCUME~1/mkwapisz/LOCALS~1/Temp/ccwCXJbO.s:3024   .text:000010e8 $t
/cygdrive/c/DOCUME~1/mkwapisz/LOCALS~1/Temp/ccwCXJbO.s:3510   .text:00001464 $d
/cygdrive/c/DOCUME~1/mkwapisz/LOCALS~1/Temp/ccwCXJbO.s:3966   .bss:00000004 lastMove
/cygdrive/c/DOCUME~1/mkwapisz/LOCALS~1/Temp/ccwCXJbO.s:3538   .text:000014cc $t
/cygdrive/c/DOCUME~1/mkwapisz/LOCALS~1/Temp/ccwCXJbO.s:3887   .text:000016ec $d
/cygdrive/c/DOCUME~1/mkwapisz/LOCALS~1/Temp/ccwCXJbO.s:3934   .data:00000020 $d
/cygdrive/c/DOCUME~1/mkwapisz/LOCALS~1/Temp/ccwCXJbO.s:3971   .bss:0000000c $d

ARM GAS  /cygdrive/c/DOCUME~1/mkwapisz/LOCALS~1/Temp/ccwCXJbO.s 			page 163


UNDEFINED SYMBOLS
lcdRect
ms
lcdGotoxy
lcdColor
lcdPuts
__udivsi3
__umodsi3
osSleep
uart1SendString
uart1GetChar
simplePrintf
memcmp
strchr
strncmp
checkKey
strcpy
lcdPutchar
lcdClrscr
__floatsidf
__adddf3
__fixunsdfsi
floor
uart1SendChars
__subdf3
__nedf2
__gtdf2
__gedf2
__ltdf2
__divdf3
__muldf3
__ledf2
blockBtProc
drawMenu
checkKey2
sqrt
cos
sin
activateBtProc
